; Listing generated by Microsoft (R) Optimizing Compiler Version 19.41.34123.0 

include listing.inc

INCLUDELIB LIBCMT
INCLUDELIB OLDNAMES

PUBLIC	?displayBuffer@@3UDisplayBuffer@@A		; displayBuffer
PUBLIC	?globalRunning@@3_NA				; globalRunning
PUBLIC	?globalSecondaryBuffer@@3PEAUIDirectSoundBuffer@@EA ; globalSecondaryBuffer
_BSS	SEGMENT
?displayBuffer@@3UDisplayBuffer@@A DB 040H DUP (?)	; displayBuffer
?globalRunning@@3_NA DB 01H DUP (?)			; globalRunning
	ALIGN	8

?globalSecondaryBuffer@@3PEAUIDirectSoundBuffer@@EA DQ 01H DUP (?) ; globalSecondaryBuffer
_BSS	ENDS
CONST	SEGMENT
$SG95923 DB	'dsound.dll', 00H
	ORG $+5
$SG95925 DB	'DirectSoundCreate', 00H
	ORG $+6
$SG95930 DB	'Succeeded setting primary buffer format.', 0aH, 00H
	ORG $+6
$SG95932 DB	'Succeeded creating  secondary buffer.', 0aH, 00H
	ORG $+1
$SG95982 DB	'W pressed.', 0aH, 00H
	ORG $+4
$SG95985 DB	'W released.', 0aH, 00H
	ORG $+3
$SG96015 DB	'HandmadeHero class', 00H
	ORG $+1
$SG96016 DB	'Game', 00H
CONST	ENDS
PUBLIC	WinMain
PUBLIC	?win32_createDisplayBuffer@@YAXPEAUDisplayBuffer@@HH@Z ; win32_createDisplayBuffer
PUBLIC	?win32_displayBufferOnWindow@@YAXPEAUHDC__@@PEAUDisplayBuffer@@HH@Z ; win32_displayBufferOnWindow
PUBLIC	?win32_getWindowDimensions@@YA?AUDimensions@@PEAUHWND__@@@Z ; win32_getWindowDimensions
PUBLIC	?win32_initDSound@@YAXPEAUHWND__@@HH@Z		; win32_initDSound
PUBLIC	?win32_fillSoundBuffer@@YAXPEAUSoundOutput@@KK@Z ; win32_fillSoundBuffer
PUBLIC	?win32_MainWindowCallback@@YA_JPEAUHWND__@@I_K_J@Z ; win32_MainWindowCallback
PUBLIC	__real@40c90fdb
EXTRN	sinf:PROC
EXTRN	__imp_OutputDebugStringA:PROC
EXTRN	__imp_VirtualAlloc:PROC
EXTRN	__imp_VirtualFree:PROC
EXTRN	__imp_GetProcAddress:PROC
EXTRN	__imp_LoadLibraryA:PROC
EXTRN	__imp_StretchDIBits:PROC
EXTRN	__imp_TranslateMessage:PROC
EXTRN	__imp_DispatchMessageA:PROC
EXTRN	__imp_PeekMessageA:PROC
EXTRN	__imp_DefWindowProcA:PROC
EXTRN	__imp_RegisterClassA:PROC
EXTRN	__imp_CreateWindowExA:PROC
EXTRN	__imp_GetDC:PROC
EXTRN	__imp_ReleaseDC:PROC
EXTRN	__imp_BeginPaint:PROC
EXTRN	__imp_EndPaint:PROC
EXTRN	__imp_GetClientRect:PROC
EXTRN	__GSHandlerCheck:PROC
EXTRN	__security_check_cookie:PROC
EXTRN	__security_cookie:QWORD
EXTRN	_fltused:DWORD
pdata	SEGMENT
$pdata$?win32_fillDisplayBuffer@@YAXPEAUgame_DisplayBuffer@@@Z DD imagerel ?win32_fillDisplayBuffer@@YAXPEAUgame_DisplayBuffer@@@Z
	DD	imagerel ?win32_fillDisplayBuffer@@YAXPEAUgame_DisplayBuffer@@@Z+202
	DD	imagerel $unwind$?win32_fillDisplayBuffer@@YAXPEAUgame_DisplayBuffer@@@Z
$pdata$?gameUpdateAndRender@@YAXPEAUgame_DisplayBuffer@@@Z DD imagerel ?gameUpdateAndRender@@YAXPEAUgame_DisplayBuffer@@@Z
	DD	imagerel ?gameUpdateAndRender@@YAXPEAUgame_DisplayBuffer@@@Z+25
	DD	imagerel $unwind$?gameUpdateAndRender@@YAXPEAUgame_DisplayBuffer@@@Z
$pdata$WinMain DD imagerel $LN12
	DD	imagerel $LN12+1030
	DD	imagerel $unwind$WinMain
$pdata$?win32_createDisplayBuffer@@YAXPEAUDisplayBuffer@@HH@Z DD imagerel $LN4
	DD	imagerel $LN4+247
	DD	imagerel $unwind$?win32_createDisplayBuffer@@YAXPEAUDisplayBuffer@@HH@Z
$pdata$?win32_displayBufferOnWindow@@YAXPEAUHDC__@@PEAUDisplayBuffer@@HH@Z DD imagerel $LN3
	DD	imagerel $LN3+165
	DD	imagerel $unwind$?win32_displayBufferOnWindow@@YAXPEAUHDC__@@PEAUDisplayBuffer@@HH@Z
$pdata$?win32_getWindowDimensions@@YA?AUDimensions@@PEAUHWND__@@@Z DD imagerel $LN3
	DD	imagerel $LN3+82
	DD	imagerel $unwind$?win32_getWindowDimensions@@YA?AUDimensions@@PEAUHWND__@@@Z
$pdata$?win32_initDSound@@YAXPEAUHWND__@@HH@Z DD imagerel $LN9
	DD	imagerel $LN9+509
	DD	imagerel $unwind$?win32_initDSound@@YAXPEAUHWND__@@HH@Z
$pdata$?win32_fillSoundBuffer@@YAXPEAUSoundOutput@@KK@Z DD imagerel $LN10
	DD	imagerel $LN10+704
	DD	imagerel $unwind$?win32_fillSoundBuffer@@YAXPEAUSoundOutput@@KK@Z
$pdata$?win32_MainWindowCallback@@YA_JPEAUHWND__@@I_K_J@Z DD imagerel $LN14
	DD	imagerel $LN14+307
	DD	imagerel $unwind$?win32_MainWindowCallback@@YA_JPEAUHWND__@@I_K_J@Z
pdata	ENDS
;	COMDAT __real@40c90fdb
CONST	SEGMENT
__real@40c90fdb DD 040c90fdbr			; 6.28319
CONST	ENDS
voltbl	SEGMENT
_volmd	DD	0ffffffffH
	DDSymXIndex: 	FLAT:?win32_MainWindowCallback@@YA_JPEAUHWND__@@I_K_J@Z
	DD	024H
	DD	011bH
_volmd	DD	0ffffffffH
	DDSymXIndex: 	FLAT:?win32_initDSound@@YAXPEAUHWND__@@HH@Z
	DD	020H
	DD	01e4H
_volmd	DD	0ffffffffH
	DDSymXIndex: 	FLAT:?win32_getWindowDimensions@@YA?AUDimensions@@PEAUHWND__@@@Z
	DD	013H
	DD	040H
_volmd	DD	0ffffffffH
	DDSymXIndex: 	FLAT:WinMain
	DD	026H
	DD	03edH
voltbl	ENDS
xdata	SEGMENT
$unwind$?win32_fillDisplayBuffer@@YAXPEAUgame_DisplayBuffer@@@Z DD 010901H
	DD	04209H
$unwind$?gameUpdateAndRender@@YAXPEAUgame_DisplayBuffer@@@Z DD 010901H
	DD	04209H
$unwind$WinMain DD 032e19H
	DD	02c011cH
	DD	07015H
	DD	imagerel __GSHandlerCheck
	DD	0158H
$unwind$?win32_createDisplayBuffer@@YAXPEAUDisplayBuffer@@HH@Z DD 011201H
	DD	06212H
$unwind$?win32_displayBufferOnWindow@@YAXPEAUHDC__@@PEAUDisplayBuffer@@HH@Z DD 011801H
	DD	0e218H
$unwind$?win32_getWindowDimensions@@YA?AUDimensions@@PEAUHWND__@@@Z DD 011819H
	DD	08209H
	DD	imagerel __GSHandlerCheck
	DD	038H
$unwind$?win32_initDSound@@YAXPEAUHWND__@@HH@Z DD 032819H
	DD	0160116H
	DD	0700fH
	DD	imagerel __GSHandlerCheck
	DD	0a8H
$unwind$?win32_fillSoundBuffer@@YAXPEAUSoundOutput@@KK@Z DD 021501H
	DD	0110115H
$unwind$?win32_MainWindowCallback@@YA_JPEAUHWND__@@I_K_J@Z DD 022c19H
	DD	013011aH
	DD	imagerel __GSHandlerCheck
	DD	080H
xdata	ENDS
; Function compile flags: /Odtp
; File C:\HandmadeHero\GFSC Working\platformApi\win32_handmade.cpp
_TEXT	SEGMENT
tv64 = 32
deviceContext$1 = 40
ps$2 = 48
__$ArrayPad$ = 128
window$ = 160
message$ = 168
wParam$ = 176
lParam$ = 184
?win32_MainWindowCallback@@YA_JPEAUHWND__@@I_K_J@Z PROC	; win32_MainWindowCallback

; 191  : {

$LN14:
  00000	4c 89 4c 24 20	 mov	 QWORD PTR [rsp+32], r9
  00005	4c 89 44 24 18	 mov	 QWORD PTR [rsp+24], r8
  0000a	89 54 24 10	 mov	 DWORD PTR [rsp+16], edx
  0000e	48 89 4c 24 08	 mov	 QWORD PTR [rsp+8], rcx
  00013	48 81 ec 98 00
	00 00		 sub	 rsp, 152		; 00000098H
  0001a	48 8b 05 00 00
	00 00		 mov	 rax, QWORD PTR __security_cookie
  00021	48 33 c4	 xor	 rax, rsp
  00024	48 89 84 24 80
	00 00 00	 mov	 QWORD PTR __$ArrayPad$[rsp], rax

; 192  :     switch (message)

  0002c	8b 84 24 a8 00
	00 00		 mov	 eax, DWORD PTR message$[rsp]
  00033	89 44 24 20	 mov	 DWORD PTR tv64[rsp], eax
  00037	83 7c 24 20 0f	 cmp	 DWORD PTR tv64[rsp], 15
  0003c	74 2e		 je	 SHORT $LN5@win32_Main
  0003e	83 7c 24 20 10	 cmp	 DWORD PTR tv64[rsp], 16
  00043	74 19		 je	 SHORT $LN4@win32_Main
  00045	81 7c 24 20 00
	01 00 00	 cmp	 DWORD PTR tv64[rsp], 256 ; 00000100H
  0004d	74 4d		 je	 SHORT $LN6@win32_Main
  0004f	81 7c 24 20 01
	01 00 00	 cmp	 DWORD PTR tv64[rsp], 257 ; 00000101H
  00057	74 43		 je	 SHORT $LN7@win32_Main
  00059	e9 98 00 00 00	 jmp	 $LN2@win32_Main
$LN4@win32_Main:

; 193  :     {
; 194  :     case WM_CLOSE:
; 195  :     {
; 196  :         globalRunning = false;

  0005e	c6 05 00 00 00
	00 00		 mov	 BYTE PTR ?globalRunning@@3_NA, 0 ; globalRunning

; 197  :     }
; 198  :         return 0;

  00065	33 c0		 xor	 eax, eax
  00067	e9 af 00 00 00	 jmp	 $LN1@win32_Main
$LN5@win32_Main:

; 199  :     case WM_PAINT:
; 200  :     {
; 201  :         PAINTSTRUCT ps;
; 202  :         HDC deviceContext = BeginPaint(window, &ps);

  0006c	48 8d 54 24 30	 lea	 rdx, QWORD PTR ps$2[rsp]
  00071	48 8b 8c 24 a0
	00 00 00	 mov	 rcx, QWORD PTR window$[rsp]
  00079	ff 15 00 00 00
	00		 call	 QWORD PTR __imp_BeginPaint
  0007f	48 89 44 24 28	 mov	 QWORD PTR deviceContext$1[rsp], rax

; 203  :         EndPaint(window, &ps);

  00084	48 8d 54 24 30	 lea	 rdx, QWORD PTR ps$2[rsp]
  00089	48 8b 8c 24 a0
	00 00 00	 mov	 rcx, QWORD PTR window$[rsp]
  00091	ff 15 00 00 00
	00		 call	 QWORD PTR __imp_EndPaint
  00097	90		 npad	 1

; 204  :     }
; 205  :         return 0;

  00098	33 c0		 xor	 eax, eax
  0009a	eb 7f		 jmp	 SHORT $LN1@win32_Main
$LN6@win32_Main:
$LN7@win32_Main:

; 206  :     case WM_KEYDOWN:
; 207  :     case WM_KEYUP:
; 208  :     {
; 209  :         if ((lParam & (1 << 30)) == 0)

  0009c	48 8b 84 24 b8
	00 00 00	 mov	 rax, QWORD PTR lParam$[rsp]
  000a4	48 25 00 00 00
	40		 and	 rax, 1073741824		; 40000000H
  000aa	48 85 c0	 test	 rax, rax
  000ad	75 1b		 jne	 SHORT $LN8@win32_Main

; 210  :         {
; 211  :             if (wParam == 'W')

  000af	48 83 bc 24 b0
	00 00 00 57	 cmp	 QWORD PTR wParam$[rsp], 87 ; 00000057H
  000b8	75 0e		 jne	 SHORT $LN10@win32_Main

; 212  :             {
; 213  :                 OutputDebugStringA("W pressed.\n");

  000ba	48 8d 0d 00 00
	00 00		 lea	 rcx, OFFSET FLAT:$SG95982
  000c1	ff 15 00 00 00
	00		 call	 QWORD PTR __imp_OutputDebugStringA
  000c7	90		 npad	 1
$LN10@win32_Main:

; 214  :             }
; 215  :         }

  000c8	eb 2c		 jmp	 SHORT $LN9@win32_Main
$LN8@win32_Main:

; 216  :         else
; 217  :         {
; 218  :             if ((lParam & (1 << 31)) != 0)

  000ca	48 8b 84 24 b8
	00 00 00	 mov	 rax, QWORD PTR lParam$[rsp]
  000d2	48 25 00 00 00
	80		 and	 rax, -2147483648	; ffffffff80000000H
  000d8	48 85 c0	 test	 rax, rax
  000db	74 19		 je	 SHORT $LN11@win32_Main

; 219  :             {
; 220  :                 if (wParam == 'W')

  000dd	48 83 bc 24 b0
	00 00 00 57	 cmp	 QWORD PTR wParam$[rsp], 87 ; 00000057H
  000e6	75 0e		 jne	 SHORT $LN12@win32_Main

; 221  :                 {
; 222  :                     OutputDebugStringA("W released.\n");

  000e8	48 8d 0d 00 00
	00 00		 lea	 rcx, OFFSET FLAT:$SG95985
  000ef	ff 15 00 00 00
	00		 call	 QWORD PTR __imp_OutputDebugStringA
  000f5	90		 npad	 1
$LN12@win32_Main:
$LN11@win32_Main:
$LN9@win32_Main:
$LN2@win32_Main:

; 223  :                 }
; 224  :             }
; 225  :         }
; 226  :     }
; 227  :     }
; 228  :     return DefWindowProcA(window, message, wParam, lParam);

  000f6	4c 8b 8c 24 b8
	00 00 00	 mov	 r9, QWORD PTR lParam$[rsp]
  000fe	4c 8b 84 24 b0
	00 00 00	 mov	 r8, QWORD PTR wParam$[rsp]
  00106	8b 94 24 a8 00
	00 00		 mov	 edx, DWORD PTR message$[rsp]
  0010d	48 8b 8c 24 a0
	00 00 00	 mov	 rcx, QWORD PTR window$[rsp]
  00115	ff 15 00 00 00
	00		 call	 QWORD PTR __imp_DefWindowProcA
$LN1@win32_Main:

; 229  : }

  0011b	48 8b 8c 24 80
	00 00 00	 mov	 rcx, QWORD PTR __$ArrayPad$[rsp]
  00123	48 33 cc	 xor	 rcx, rsp
  00126	e8 00 00 00 00	 call	 __security_check_cookie
  0012b	48 81 c4 98 00
	00 00		 add	 rsp, 152		; 00000098H
  00132	c3		 ret	 0
?win32_MainWindowCallback@@YA_JPEAUHWND__@@I_K_J@Z ENDP	; win32_MainWindowCallback
_TEXT	ENDS
; Function compile flags: /Odtp
; File C:\HandmadeHero\GFSC Working\platformApi\win32_handmade.cpp
_TEXT	SEGMENT
sampleOut$1 = 64
sampleValue$2 = 72
sampleValue$3 = 76
sampleIndex$4 = 80
sampleIndex$5 = 84
region2Size$ = 88
region1Size$ = 92
region1SampleCount$6 = 96
sinValue$7 = 100
region2SampleCount$8 = 104
sinValue$9 = 108
region2$ = 112
region1$ = 120
soundOutput$ = 144
byteToLock$ = 152
bytesToWrite$ = 160
?win32_fillSoundBuffer@@YAXPEAUSoundOutput@@KK@Z PROC	; win32_fillSoundBuffer

; 152  : {

$LN10:
  00000	44 89 44 24 18	 mov	 DWORD PTR [rsp+24], r8d
  00005	89 54 24 10	 mov	 DWORD PTR [rsp+16], edx
  00009	48 89 4c 24 08	 mov	 QWORD PTR [rsp+8], rcx
  0000e	48 81 ec 88 00
	00 00		 sub	 rsp, 136		; 00000088H

; 153  :     void *region1;
; 154  :     DWORD region1Size;
; 155  :     void *region2;
; 156  :     DWORD region2Size;
; 157  :     if (SUCCEEDED(globalSecondaryBuffer->Lock(byteToLock, bytesToWrite, &region1, &region1Size, &region2, &region2Size, 0)))

  00015	48 8b 05 00 00
	00 00		 mov	 rax, QWORD PTR ?globalSecondaryBuffer@@3PEAUIDirectSoundBuffer@@EA ; globalSecondaryBuffer
  0001c	48 8b 00	 mov	 rax, QWORD PTR [rax]
  0001f	c7 44 24 38 00
	00 00 00	 mov	 DWORD PTR [rsp+56], 0
  00027	48 8d 4c 24 58	 lea	 rcx, QWORD PTR region2Size$[rsp]
  0002c	48 89 4c 24 30	 mov	 QWORD PTR [rsp+48], rcx
  00031	48 8d 4c 24 70	 lea	 rcx, QWORD PTR region2$[rsp]
  00036	48 89 4c 24 28	 mov	 QWORD PTR [rsp+40], rcx
  0003b	48 8d 4c 24 5c	 lea	 rcx, QWORD PTR region1Size$[rsp]
  00040	48 89 4c 24 20	 mov	 QWORD PTR [rsp+32], rcx
  00045	4c 8d 4c 24 78	 lea	 r9, QWORD PTR region1$[rsp]
  0004a	44 8b 84 24 a0
	00 00 00	 mov	 r8d, DWORD PTR bytesToWrite$[rsp]
  00052	8b 94 24 98 00
	00 00		 mov	 edx, DWORD PTR byteToLock$[rsp]
  00059	48 8b 0d 00 00
	00 00		 mov	 rcx, QWORD PTR ?globalSecondaryBuffer@@3PEAUIDirectSoundBuffer@@EA ; globalSecondaryBuffer
  00060	ff 50 58	 call	 QWORD PTR [rax+88]
  00063	85 c0		 test	 eax, eax
  00065	0f 8c 4d 02 00
	00		 jl	 $LN8@win32_fill

; 158  :     {
; 159  :         DWORD region1SampleCount = region1Size / soundOutput->bytesPerSample;

  0006b	33 d2		 xor	 edx, edx
  0006d	8b 44 24 5c	 mov	 eax, DWORD PTR region1Size$[rsp]
  00071	48 8b 8c 24 90
	00 00 00	 mov	 rcx, QWORD PTR soundOutput$[rsp]
  00079	f7 71 14	 div	 DWORD PTR [rcx+20]
  0007c	89 44 24 60	 mov	 DWORD PTR region1SampleCount$6[rsp], eax

; 160  :         int16 *sampleOut = (int16 *)region1;

  00080	48 8b 44 24 78	 mov	 rax, QWORD PTR region1$[rsp]
  00085	48 89 44 24 40	 mov	 QWORD PTR sampleOut$1[rsp], rax

; 161  :         for (DWORD sampleIndex = 0; sampleIndex < region1SampleCount; sampleIndex++)

  0008a	c7 44 24 50 00
	00 00 00	 mov	 DWORD PTR sampleIndex$4[rsp], 0
  00092	eb 0a		 jmp	 SHORT $LN4@win32_fill
$LN2@win32_fill:
  00094	8b 44 24 50	 mov	 eax, DWORD PTR sampleIndex$4[rsp]
  00098	ff c0		 inc	 eax
  0009a	89 44 24 50	 mov	 DWORD PTR sampleIndex$4[rsp], eax
$LN4@win32_fill:
  0009e	8b 44 24 60	 mov	 eax, DWORD PTR region1SampleCount$6[rsp]
  000a2	39 44 24 50	 cmp	 DWORD PTR sampleIndex$4[rsp], eax
  000a6	0f 83 ce 00 00
	00		 jae	 $LN3@win32_fill

; 162  :         {
; 163  :             real32 sinValue = sinf(soundOutput->tsine);

  000ac	48 8b 84 24 90
	00 00 00	 mov	 rax, QWORD PTR soundOutput$[rsp]
  000b4	f3 0f 10 40 1c	 movss	 xmm0, DWORD PTR [rax+28]
  000b9	e8 00 00 00 00	 call	 sinf
  000be	f3 0f 11 44 24
	64		 movss	 DWORD PTR sinValue$7[rsp], xmm0

; 164  :             int16 sampleValue = (int16)(sinValue * soundOutput->toneVolume);

  000c4	48 8b 84 24 90
	00 00 00	 mov	 rax, QWORD PTR soundOutput$[rsp]
  000cc	0f bf 40 08	 movsx	 eax, WORD PTR [rax+8]
  000d0	f3 0f 2a c0	 cvtsi2ss xmm0, eax
  000d4	f3 0f 10 4c 24
	64		 movss	 xmm1, DWORD PTR sinValue$7[rsp]
  000da	f3 0f 59 c8	 mulss	 xmm1, xmm0
  000de	0f 28 c1	 movaps	 xmm0, xmm1
  000e1	f3 0f 2c c0	 cvttss2si eax, xmm0
  000e5	66 89 44 24 48	 mov	 WORD PTR sampleValue$2[rsp], ax

; 165  :             *sampleOut++ = sampleValue;

  000ea	48 8b 44 24 40	 mov	 rax, QWORD PTR sampleOut$1[rsp]
  000ef	0f b7 4c 24 48	 movzx	 ecx, WORD PTR sampleValue$2[rsp]
  000f4	66 89 08	 mov	 WORD PTR [rax], cx
  000f7	48 8b 44 24 40	 mov	 rax, QWORD PTR sampleOut$1[rsp]
  000fc	48 83 c0 02	 add	 rax, 2
  00100	48 89 44 24 40	 mov	 QWORD PTR sampleOut$1[rsp], rax

; 166  :             *sampleOut++ = sampleValue;

  00105	48 8b 44 24 40	 mov	 rax, QWORD PTR sampleOut$1[rsp]
  0010a	0f b7 4c 24 48	 movzx	 ecx, WORD PTR sampleValue$2[rsp]
  0010f	66 89 08	 mov	 WORD PTR [rax], cx
  00112	48 8b 44 24 40	 mov	 rax, QWORD PTR sampleOut$1[rsp]
  00117	48 83 c0 02	 add	 rax, 2
  0011b	48 89 44 24 40	 mov	 QWORD PTR sampleOut$1[rsp], rax

; 167  : 
; 168  :             soundOutput->tsine += 2.0f * Pi32 / (real32)soundOutput->wavePeriod;

  00120	48 8b 84 24 90
	00 00 00	 mov	 rax, QWORD PTR soundOutput$[rsp]
  00128	f3 0f 2a 40 10	 cvtsi2ss xmm0, DWORD PTR [rax+16]
  0012d	f3 0f 10 0d 00
	00 00 00	 movss	 xmm1, DWORD PTR __real@40c90fdb
  00135	f3 0f 5e c8	 divss	 xmm1, xmm0
  00139	0f 28 c1	 movaps	 xmm0, xmm1
  0013c	48 8b 84 24 90
	00 00 00	 mov	 rax, QWORD PTR soundOutput$[rsp]
  00144	f3 0f 10 48 1c	 movss	 xmm1, DWORD PTR [rax+28]
  00149	f3 0f 58 c8	 addss	 xmm1, xmm0
  0014d	0f 28 c1	 movaps	 xmm0, xmm1
  00150	48 8b 84 24 90
	00 00 00	 mov	 rax, QWORD PTR soundOutput$[rsp]
  00158	f3 0f 11 40 1c	 movss	 DWORD PTR [rax+28], xmm0

; 169  :             ++soundOutput->runningSampleIndex;

  0015d	48 8b 84 24 90
	00 00 00	 mov	 rax, QWORD PTR soundOutput$[rsp]
  00165	8b 40 0c	 mov	 eax, DWORD PTR [rax+12]
  00168	ff c0		 inc	 eax
  0016a	48 8b 8c 24 90
	00 00 00	 mov	 rcx, QWORD PTR soundOutput$[rsp]
  00172	89 41 0c	 mov	 DWORD PTR [rcx+12], eax

; 170  :         }

  00175	e9 1a ff ff ff	 jmp	 $LN2@win32_fill
$LN3@win32_fill:

; 171  : 
; 172  :         DWORD region2SampleCount = region2Size / soundOutput->bytesPerSample;

  0017a	33 d2		 xor	 edx, edx
  0017c	8b 44 24 58	 mov	 eax, DWORD PTR region2Size$[rsp]
  00180	48 8b 8c 24 90
	00 00 00	 mov	 rcx, QWORD PTR soundOutput$[rsp]
  00188	f7 71 14	 div	 DWORD PTR [rcx+20]
  0018b	89 44 24 68	 mov	 DWORD PTR region2SampleCount$8[rsp], eax

; 173  :         sampleOut = (int16 *)region2;

  0018f	48 8b 44 24 70	 mov	 rax, QWORD PTR region2$[rsp]
  00194	48 89 44 24 40	 mov	 QWORD PTR sampleOut$1[rsp], rax

; 174  :         for (DWORD sampleIndex = 0; sampleIndex < region2SampleCount; sampleIndex++)

  00199	c7 44 24 54 00
	00 00 00	 mov	 DWORD PTR sampleIndex$5[rsp], 0
  001a1	eb 0a		 jmp	 SHORT $LN7@win32_fill
$LN5@win32_fill:
  001a3	8b 44 24 54	 mov	 eax, DWORD PTR sampleIndex$5[rsp]
  001a7	ff c0		 inc	 eax
  001a9	89 44 24 54	 mov	 DWORD PTR sampleIndex$5[rsp], eax
$LN7@win32_fill:
  001ad	8b 44 24 68	 mov	 eax, DWORD PTR region2SampleCount$8[rsp]
  001b1	39 44 24 54	 cmp	 DWORD PTR sampleIndex$5[rsp], eax
  001b5	0f 83 ce 00 00
	00		 jae	 $LN6@win32_fill

; 175  :         {
; 176  :             real32 sinValue = sinf(soundOutput->tsine);

  001bb	48 8b 84 24 90
	00 00 00	 mov	 rax, QWORD PTR soundOutput$[rsp]
  001c3	f3 0f 10 40 1c	 movss	 xmm0, DWORD PTR [rax+28]
  001c8	e8 00 00 00 00	 call	 sinf
  001cd	f3 0f 11 44 24
	6c		 movss	 DWORD PTR sinValue$9[rsp], xmm0

; 177  :             int16 sampleValue = (int16)(sinValue * soundOutput->toneVolume);

  001d3	48 8b 84 24 90
	00 00 00	 mov	 rax, QWORD PTR soundOutput$[rsp]
  001db	0f bf 40 08	 movsx	 eax, WORD PTR [rax+8]
  001df	f3 0f 2a c0	 cvtsi2ss xmm0, eax
  001e3	f3 0f 10 4c 24
	6c		 movss	 xmm1, DWORD PTR sinValue$9[rsp]
  001e9	f3 0f 59 c8	 mulss	 xmm1, xmm0
  001ed	0f 28 c1	 movaps	 xmm0, xmm1
  001f0	f3 0f 2c c0	 cvttss2si eax, xmm0
  001f4	66 89 44 24 4c	 mov	 WORD PTR sampleValue$3[rsp], ax

; 178  :             *sampleOut++ = sampleValue;

  001f9	48 8b 44 24 40	 mov	 rax, QWORD PTR sampleOut$1[rsp]
  001fe	0f b7 4c 24 4c	 movzx	 ecx, WORD PTR sampleValue$3[rsp]
  00203	66 89 08	 mov	 WORD PTR [rax], cx
  00206	48 8b 44 24 40	 mov	 rax, QWORD PTR sampleOut$1[rsp]
  0020b	48 83 c0 02	 add	 rax, 2
  0020f	48 89 44 24 40	 mov	 QWORD PTR sampleOut$1[rsp], rax

; 179  :             *sampleOut++ = sampleValue;

  00214	48 8b 44 24 40	 mov	 rax, QWORD PTR sampleOut$1[rsp]
  00219	0f b7 4c 24 4c	 movzx	 ecx, WORD PTR sampleValue$3[rsp]
  0021e	66 89 08	 mov	 WORD PTR [rax], cx
  00221	48 8b 44 24 40	 mov	 rax, QWORD PTR sampleOut$1[rsp]
  00226	48 83 c0 02	 add	 rax, 2
  0022a	48 89 44 24 40	 mov	 QWORD PTR sampleOut$1[rsp], rax

; 180  : 
; 181  :             soundOutput->tsine += 2.0f * Pi32 / (real32)soundOutput->wavePeriod;

  0022f	48 8b 84 24 90
	00 00 00	 mov	 rax, QWORD PTR soundOutput$[rsp]
  00237	f3 0f 2a 40 10	 cvtsi2ss xmm0, DWORD PTR [rax+16]
  0023c	f3 0f 10 0d 00
	00 00 00	 movss	 xmm1, DWORD PTR __real@40c90fdb
  00244	f3 0f 5e c8	 divss	 xmm1, xmm0
  00248	0f 28 c1	 movaps	 xmm0, xmm1
  0024b	48 8b 84 24 90
	00 00 00	 mov	 rax, QWORD PTR soundOutput$[rsp]
  00253	f3 0f 10 48 1c	 movss	 xmm1, DWORD PTR [rax+28]
  00258	f3 0f 58 c8	 addss	 xmm1, xmm0
  0025c	0f 28 c1	 movaps	 xmm0, xmm1
  0025f	48 8b 84 24 90
	00 00 00	 mov	 rax, QWORD PTR soundOutput$[rsp]
  00267	f3 0f 11 40 1c	 movss	 DWORD PTR [rax+28], xmm0

; 182  :             ++soundOutput->runningSampleIndex;

  0026c	48 8b 84 24 90
	00 00 00	 mov	 rax, QWORD PTR soundOutput$[rsp]
  00274	8b 40 0c	 mov	 eax, DWORD PTR [rax+12]
  00277	ff c0		 inc	 eax
  00279	48 8b 8c 24 90
	00 00 00	 mov	 rcx, QWORD PTR soundOutput$[rsp]
  00281	89 41 0c	 mov	 DWORD PTR [rcx+12], eax

; 183  :         }

  00284	e9 1a ff ff ff	 jmp	 $LN5@win32_fill
$LN6@win32_fill:

; 184  : 
; 185  :         globalSecondaryBuffer->Unlock(region1, region1Size, region2, region2Size);

  00289	48 8b 05 00 00
	00 00		 mov	 rax, QWORD PTR ?globalSecondaryBuffer@@3PEAUIDirectSoundBuffer@@EA ; globalSecondaryBuffer
  00290	48 8b 00	 mov	 rax, QWORD PTR [rax]
  00293	8b 4c 24 58	 mov	 ecx, DWORD PTR region2Size$[rsp]
  00297	89 4c 24 20	 mov	 DWORD PTR [rsp+32], ecx
  0029b	4c 8b 4c 24 70	 mov	 r9, QWORD PTR region2$[rsp]
  002a0	44 8b 44 24 5c	 mov	 r8d, DWORD PTR region1Size$[rsp]
  002a5	48 8b 54 24 78	 mov	 rdx, QWORD PTR region1$[rsp]
  002aa	48 8b 0d 00 00
	00 00		 mov	 rcx, QWORD PTR ?globalSecondaryBuffer@@3PEAUIDirectSoundBuffer@@EA ; globalSecondaryBuffer
  002b1	ff 90 98 00 00
	00		 call	 QWORD PTR [rax+152]
  002b7	90		 npad	 1
$LN8@win32_fill:

; 186  :     }
; 187  : }

  002b8	48 81 c4 88 00
	00 00		 add	 rsp, 136		; 00000088H
  002bf	c3		 ret	 0
?win32_fillSoundBuffer@@YAXPEAUSoundOutput@@KK@Z ENDP	; win32_fillSoundBuffer
_TEXT	ENDS
; Function compile flags: /Odtp
; File C:\HandmadeHero\GFSC Working\platformApi\win32_handmade.cpp
_TEXT	SEGMENT
directSound$1 = 32
dSound$ = 40
DirectSoundCreate$2 = 48
primaryBuffer$3 = 56
bufferDescription$4 = 64
waveFormat$5 = 104
bufferDescription$6 = 128
__$ArrayPad$ = 168
window$ = 192
samplesPerSecond$ = 200
bufferSize$ = 208
?win32_initDSound@@YAXPEAUHWND__@@HH@Z PROC		; win32_initDSound

; 107  : {

$LN9:
  00000	44 89 44 24 18	 mov	 DWORD PTR [rsp+24], r8d
  00005	89 54 24 10	 mov	 DWORD PTR [rsp+16], edx
  00009	48 89 4c 24 08	 mov	 QWORD PTR [rsp+8], rcx
  0000e	57		 push	 rdi
  0000f	48 81 ec b0 00
	00 00		 sub	 rsp, 176		; 000000b0H
  00016	48 8b 05 00 00
	00 00		 mov	 rax, QWORD PTR __security_cookie
  0001d	48 33 c4	 xor	 rax, rsp
  00020	48 89 84 24 a8
	00 00 00	 mov	 QWORD PTR __$ArrayPad$[rsp], rax

; 108  :     HMODULE dSound = LoadLibraryA("dsound.dll");

  00028	48 8d 0d 00 00
	00 00		 lea	 rcx, OFFSET FLAT:$SG95923
  0002f	ff 15 00 00 00
	00		 call	 QWORD PTR __imp_LoadLibraryA
  00035	48 89 44 24 28	 mov	 QWORD PTR dSound$[rsp], rax

; 109  :     if (dSound)

  0003a	48 83 7c 24 28
	00		 cmp	 QWORD PTR dSound$[rsp], 0
  00040	0f 84 9e 01 00
	00		 je	 $LN2@win32_init

; 110  :     {
; 111  :         direct_sound_create *DirectSoundCreate = (direct_sound_create *)GetProcAddress(dSound, "DirectSoundCreate");

  00046	48 8d 15 00 00
	00 00		 lea	 rdx, OFFSET FLAT:$SG95925
  0004d	48 8b 4c 24 28	 mov	 rcx, QWORD PTR dSound$[rsp]
  00052	ff 15 00 00 00
	00		 call	 QWORD PTR __imp_GetProcAddress
  00058	48 89 44 24 30	 mov	 QWORD PTR DirectSoundCreate$2[rsp], rax

; 112  :         LPDIRECTSOUND directSound;
; 113  :         if (DirectSoundCreate && SUCCEEDED(DirectSoundCreate(0, &directSound, 0)))

  0005d	48 83 7c 24 30
	00		 cmp	 QWORD PTR DirectSoundCreate$2[rsp], 0
  00063	0f 84 7b 01 00
	00		 je	 $LN3@win32_init
  00069	45 33 c0	 xor	 r8d, r8d
  0006c	48 8d 54 24 20	 lea	 rdx, QWORD PTR directSound$1[rsp]
  00071	33 c9		 xor	 ecx, ecx
  00073	ff 54 24 30	 call	 QWORD PTR DirectSoundCreate$2[rsp]
  00077	85 c0		 test	 eax, eax
  00079	0f 8c 65 01 00
	00		 jl	 $LN3@win32_init

; 114  :         {
; 115  :             WAVEFORMATEX waveFormat = {};

  0007f	48 8d 44 24 68	 lea	 rax, QWORD PTR waveFormat$5[rsp]
  00084	48 8b f8	 mov	 rdi, rax
  00087	33 c0		 xor	 eax, eax
  00089	b9 12 00 00 00	 mov	 ecx, 18
  0008e	f3 aa		 rep stosb

; 116  :             waveFormat.wFormatTag = WAVE_FORMAT_PCM;

  00090	b8 01 00 00 00	 mov	 eax, 1
  00095	66 89 44 24 68	 mov	 WORD PTR waveFormat$5[rsp], ax

; 117  :             waveFormat.nChannels = 2;

  0009a	b8 02 00 00 00	 mov	 eax, 2
  0009f	66 89 44 24 6a	 mov	 WORD PTR waveFormat$5[rsp+2], ax

; 118  :             waveFormat.nSamplesPerSec = samplesPerSecond;

  000a4	8b 84 24 c8 00
	00 00		 mov	 eax, DWORD PTR samplesPerSecond$[rsp]
  000ab	89 44 24 6c	 mov	 DWORD PTR waveFormat$5[rsp+4], eax

; 119  :             waveFormat.wBitsPerSample = 16;

  000af	b8 10 00 00 00	 mov	 eax, 16
  000b4	66 89 44 24 76	 mov	 WORD PTR waveFormat$5[rsp+14], ax

; 120  :             waveFormat.nBlockAlign = (waveFormat.nChannels * waveFormat.wBitsPerSample) / 8;

  000b9	0f b7 44 24 6a	 movzx	 eax, WORD PTR waveFormat$5[rsp+2]
  000be	0f b7 4c 24 76	 movzx	 ecx, WORD PTR waveFormat$5[rsp+14]
  000c3	0f af c1	 imul	 eax, ecx
  000c6	99		 cdq
  000c7	83 e2 07	 and	 edx, 7
  000ca	03 c2		 add	 eax, edx
  000cc	c1 f8 03	 sar	 eax, 3
  000cf	66 89 44 24 74	 mov	 WORD PTR waveFormat$5[rsp+12], ax

; 121  :             waveFormat.nAvgBytesPerSec = waveFormat.nSamplesPerSec * waveFormat.nBlockAlign;

  000d4	0f b7 44 24 74	 movzx	 eax, WORD PTR waveFormat$5[rsp+12]
  000d9	8b 4c 24 6c	 mov	 ecx, DWORD PTR waveFormat$5[rsp+4]
  000dd	0f af c8	 imul	 ecx, eax
  000e0	8b c1		 mov	 eax, ecx
  000e2	89 44 24 70	 mov	 DWORD PTR waveFormat$5[rsp+8], eax

; 122  :             if (SUCCEEDED(directSound->SetCooperativeLevel(window, DSSCL_PRIORITY)))

  000e6	48 8b 44 24 20	 mov	 rax, QWORD PTR directSound$1[rsp]
  000eb	48 8b 00	 mov	 rax, QWORD PTR [rax]
  000ee	41 b8 02 00 00
	00		 mov	 r8d, 2
  000f4	48 8b 94 24 c0
	00 00 00	 mov	 rdx, QWORD PTR window$[rsp]
  000fc	48 8b 4c 24 20	 mov	 rcx, QWORD PTR directSound$1[rsp]
  00101	ff 50 30	 call	 QWORD PTR [rax+48]
  00104	85 c0		 test	 eax, eax
  00106	7c 75		 jl	 SHORT $LN4@win32_init

; 123  :             {
; 124  :                 DSBUFFERDESC bufferDescription = {};

  00108	48 8d 84 24 80
	00 00 00	 lea	 rax, QWORD PTR bufferDescription$6[rsp]
  00110	48 8b f8	 mov	 rdi, rax
  00113	33 c0		 xor	 eax, eax
  00115	b9 28 00 00 00	 mov	 ecx, 40			; 00000028H
  0011a	f3 aa		 rep stosb

; 125  :                 bufferDescription.dwSize = sizeof(bufferDescription);

  0011c	c7 84 24 80 00
	00 00 28 00 00
	00		 mov	 DWORD PTR bufferDescription$6[rsp], 40 ; 00000028H

; 126  :                 bufferDescription.dwFlags = DSBCAPS_PRIMARYBUFFER;

  00127	c7 84 24 84 00
	00 00 01 00 00
	00		 mov	 DWORD PTR bufferDescription$6[rsp+4], 1

; 127  : 
; 128  :                 LPDIRECTSOUNDBUFFER primaryBuffer;
; 129  :                 if (SUCCEEDED(directSound->CreateSoundBuffer(&bufferDescription, &primaryBuffer, 0)))

  00132	48 8b 44 24 20	 mov	 rax, QWORD PTR directSound$1[rsp]
  00137	48 8b 00	 mov	 rax, QWORD PTR [rax]
  0013a	45 33 c9	 xor	 r9d, r9d
  0013d	4c 8d 44 24 38	 lea	 r8, QWORD PTR primaryBuffer$3[rsp]
  00142	48 8d 94 24 80
	00 00 00	 lea	 rdx, QWORD PTR bufferDescription$6[rsp]
  0014a	48 8b 4c 24 20	 mov	 rcx, QWORD PTR directSound$1[rsp]
  0014f	ff 50 18	 call	 QWORD PTR [rax+24]
  00152	85 c0		 test	 eax, eax
  00154	7c 27		 jl	 SHORT $LN5@win32_init

; 130  :                 {
; 131  :                     if (SUCCEEDED(primaryBuffer->SetFormat(&waveFormat))) // *** THIS HERE **** [no reason, not so important just defined this way]

  00156	48 8b 44 24 38	 mov	 rax, QWORD PTR primaryBuffer$3[rsp]
  0015b	48 8b 00	 mov	 rax, QWORD PTR [rax]
  0015e	48 8d 54 24 68	 lea	 rdx, QWORD PTR waveFormat$5[rsp]
  00163	48 8b 4c 24 38	 mov	 rcx, QWORD PTR primaryBuffer$3[rsp]
  00168	ff 50 70	 call	 QWORD PTR [rax+112]
  0016b	85 c0		 test	 eax, eax
  0016d	7c 0e		 jl	 SHORT $LN6@win32_init

; 132  :                     {
; 133  :                         OutputDebugStringA("Succeeded setting primary buffer format.\n");

  0016f	48 8d 0d 00 00
	00 00		 lea	 rcx, OFFSET FLAT:$SG95930
  00176	ff 15 00 00 00
	00		 call	 QWORD PTR __imp_OutputDebugStringA
  0017c	90		 npad	 1
$LN6@win32_init:
$LN5@win32_init:
$LN4@win32_init:

; 134  :                     }
; 135  :                 }
; 136  :             }
; 137  : 
; 138  :             DSBUFFERDESC bufferDescription = {};

  0017d	48 8d 44 24 40	 lea	 rax, QWORD PTR bufferDescription$4[rsp]
  00182	48 8b f8	 mov	 rdi, rax
  00185	33 c0		 xor	 eax, eax
  00187	b9 28 00 00 00	 mov	 ecx, 40			; 00000028H
  0018c	f3 aa		 rep stosb

; 139  :             bufferDescription.dwSize = sizeof(bufferDescription);

  0018e	c7 44 24 40 28
	00 00 00	 mov	 DWORD PTR bufferDescription$4[rsp], 40 ; 00000028H

; 140  :             bufferDescription.dwFlags = 0;

  00196	c7 44 24 44 00
	00 00 00	 mov	 DWORD PTR bufferDescription$4[rsp+4], 0

; 141  :             bufferDescription.dwBufferBytes = bufferSize;

  0019e	8b 84 24 d0 00
	00 00		 mov	 eax, DWORD PTR bufferSize$[rsp]
  001a5	89 44 24 48	 mov	 DWORD PTR bufferDescription$4[rsp+8], eax

; 142  :             bufferDescription.lpwfxFormat = &waveFormat; // *** WHY THIS HERE **** [no reason, not so important just defined this way]

  001a9	48 8d 44 24 68	 lea	 rax, QWORD PTR waveFormat$5[rsp]
  001ae	48 89 44 24 50	 mov	 QWORD PTR bufferDescription$4[rsp+16], rax

; 143  :             if (SUCCEEDED(directSound->CreateSoundBuffer(&bufferDescription, &globalSecondaryBuffer, 0)))

  001b3	48 8b 44 24 20	 mov	 rax, QWORD PTR directSound$1[rsp]
  001b8	48 8b 00	 mov	 rax, QWORD PTR [rax]
  001bb	45 33 c9	 xor	 r9d, r9d
  001be	4c 8d 05 00 00
	00 00		 lea	 r8, OFFSET FLAT:?globalSecondaryBuffer@@3PEAUIDirectSoundBuffer@@EA ; globalSecondaryBuffer
  001c5	48 8d 54 24 40	 lea	 rdx, QWORD PTR bufferDescription$4[rsp]
  001ca	48 8b 4c 24 20	 mov	 rcx, QWORD PTR directSound$1[rsp]
  001cf	ff 50 18	 call	 QWORD PTR [rax+24]
  001d2	85 c0		 test	 eax, eax
  001d4	7c 0e		 jl	 SHORT $LN7@win32_init

; 144  :             {
; 145  :                 OutputDebugStringA("Succeeded creating  secondary buffer.\n");

  001d6	48 8d 0d 00 00
	00 00		 lea	 rcx, OFFSET FLAT:$SG95932
  001dd	ff 15 00 00 00
	00		 call	 QWORD PTR __imp_OutputDebugStringA
  001e3	90		 npad	 1
$LN7@win32_init:
$LN3@win32_init:
$LN2@win32_init:

; 146  :             }
; 147  :         }
; 148  :     }
; 149  : }

  001e4	48 8b 8c 24 a8
	00 00 00	 mov	 rcx, QWORD PTR __$ArrayPad$[rsp]
  001ec	48 33 cc	 xor	 rcx, rsp
  001ef	e8 00 00 00 00	 call	 __security_check_cookie
  001f4	48 81 c4 b0 00
	00 00		 add	 rsp, 176		; 000000b0H
  001fb	5f		 pop	 rdi
  001fc	c3		 ret	 0
?win32_initDSound@@YAXPEAUHWND__@@HH@Z ENDP		; win32_initDSound
_TEXT	ENDS
; Function compile flags: /Odtp
; File C:\HandmadeHero\GFSC Working\platformApi\win32_handmade.cpp
_TEXT	SEGMENT
dimension$ = 32
clientrect$ = 40
__$ArrayPad$ = 56
window$ = 80
?win32_getWindowDimensions@@YA?AUDimensions@@PEAUHWND__@@@Z PROC ; win32_getWindowDimensions

; 79   : {

$LN3:
  00000	48 89 4c 24 08	 mov	 QWORD PTR [rsp+8], rcx
  00005	48 83 ec 48	 sub	 rsp, 72			; 00000048H
  00009	48 8b 05 00 00
	00 00		 mov	 rax, QWORD PTR __security_cookie
  00010	48 33 c4	 xor	 rax, rsp
  00013	48 89 44 24 38	 mov	 QWORD PTR __$ArrayPad$[rsp], rax

; 80   :     RECT clientrect;
; 81   :     GetClientRect(window, &clientrect);

  00018	48 8d 54 24 28	 lea	 rdx, QWORD PTR clientrect$[rsp]
  0001d	48 8b 4c 24 50	 mov	 rcx, QWORD PTR window$[rsp]
  00022	ff 15 00 00 00
	00		 call	 QWORD PTR __imp_GetClientRect

; 82   :     Dimensions dimension;
; 83   :     dimension.height = clientrect.bottom;

  00028	0f b7 44 24 34	 movzx	 eax, WORD PTR clientrect$[rsp+12]
  0002d	66 89 44 24 22	 mov	 WORD PTR dimension$[rsp+2], ax

; 84   :     dimension.width = clientrect.right;

  00032	0f b7 44 24 30	 movzx	 eax, WORD PTR clientrect$[rsp+8]
  00037	66 89 44 24 20	 mov	 WORD PTR dimension$[rsp], ax

; 85   :     return dimension;

  0003c	8b 44 24 20	 mov	 eax, DWORD PTR dimension$[rsp]

; 86   : }

  00040	48 8b 4c 24 38	 mov	 rcx, QWORD PTR __$ArrayPad$[rsp]
  00045	48 33 cc	 xor	 rcx, rsp
  00048	e8 00 00 00 00	 call	 __security_check_cookie
  0004d	48 83 c4 48	 add	 rsp, 72			; 00000048H
  00051	c3		 ret	 0
?win32_getWindowDimensions@@YA?AUDimensions@@PEAUHWND__@@@Z ENDP ; win32_getWindowDimensions
_TEXT	ENDS
; Function compile flags: /Odtp
; File C:\HandmadeHero\GFSC Working\platformApi\win32_handmade.cpp
_TEXT	SEGMENT
deviceContext$ = 128
buffer$ = 136
windowWidth$ = 144
windowHeight$ = 152
?win32_displayBufferOnWindow@@YAXPEAUHDC__@@PEAUDisplayBuffer@@HH@Z PROC ; win32_displayBufferOnWindow

; 71   : {

$LN3:
  00000	44 89 4c 24 20	 mov	 DWORD PTR [rsp+32], r9d
  00005	44 89 44 24 18	 mov	 DWORD PTR [rsp+24], r8d
  0000a	48 89 54 24 10	 mov	 QWORD PTR [rsp+16], rdx
  0000f	48 89 4c 24 08	 mov	 QWORD PTR [rsp+8], rcx
  00014	48 83 ec 78	 sub	 rsp, 120		; 00000078H

; 72   :     StretchDIBits(deviceContext,

  00018	48 8b 84 24 88
	00 00 00	 mov	 rax, QWORD PTR buffer$[rsp]
  00020	48 83 c0 04	 add	 rax, 4
  00024	48 8b 8c 24 88
	00 00 00	 mov	 rcx, QWORD PTR buffer$[rsp]
  0002c	0f b7 49 02	 movzx	 ecx, WORD PTR [rcx+2]
  00030	48 8b 94 24 88
	00 00 00	 mov	 rdx, QWORD PTR buffer$[rsp]
  00038	0f b7 12	 movzx	 edx, WORD PTR [rdx]
  0003b	c7 44 24 60 20
	00 cc 00	 mov	 DWORD PTR [rsp+96], 13369376 ; 00cc0020H
  00043	c7 44 24 58 00
	00 00 00	 mov	 DWORD PTR [rsp+88], 0
  0004b	48 89 44 24 50	 mov	 QWORD PTR [rsp+80], rax
  00050	48 8b 84 24 88
	00 00 00	 mov	 rax, QWORD PTR buffer$[rsp]
  00058	48 8b 40 30	 mov	 rax, QWORD PTR [rax+48]
  0005c	48 89 44 24 48	 mov	 QWORD PTR [rsp+72], rax
  00061	89 4c 24 40	 mov	 DWORD PTR [rsp+64], ecx
  00065	89 54 24 38	 mov	 DWORD PTR [rsp+56], edx
  00069	c7 44 24 30 00
	00 00 00	 mov	 DWORD PTR [rsp+48], 0
  00071	c7 44 24 28 00
	00 00 00	 mov	 DWORD PTR [rsp+40], 0
  00079	8b 84 24 98 00
	00 00		 mov	 eax, DWORD PTR windowHeight$[rsp]
  00080	89 44 24 20	 mov	 DWORD PTR [rsp+32], eax
  00084	44 8b 8c 24 90
	00 00 00	 mov	 r9d, DWORD PTR windowWidth$[rsp]
  0008c	45 33 c0	 xor	 r8d, r8d
  0008f	33 d2		 xor	 edx, edx
  00091	48 8b 8c 24 80
	00 00 00	 mov	 rcx, QWORD PTR deviceContext$[rsp]
  00099	ff 15 00 00 00
	00		 call	 QWORD PTR __imp_StretchDIBits
  0009f	90		 npad	 1

; 73   :                   0, 0, windowWidth, windowHeight,
; 74   :                   0, 0, buffer->width, buffer->height,
; 75   :                   buffer->memory, &buffer->info, DIB_RGB_COLORS, SRCCOPY);
; 76   : }

  000a0	48 83 c4 78	 add	 rsp, 120		; 00000078H
  000a4	c3		 ret	 0
?win32_displayBufferOnWindow@@YAXPEAUHDC__@@PEAUDisplayBuffer@@HH@Z ENDP ; win32_displayBufferOnWindow
_TEXT	ENDS
; Function compile flags: /Odtp
; File C:\HandmadeHero\GFSC Working\platformApi\win32_handmade.cpp
_TEXT	SEGMENT
bytesPerPixels$ = 32
bitmapMemroySize$ = 36
buffer$ = 64
width$ = 72
height$ = 80
?win32_createDisplayBuffer@@YAXPEAUDisplayBuffer@@HH@Z PROC ; win32_createDisplayBuffer

; 49   : {

$LN4:
  00000	44 89 44 24 18	 mov	 DWORD PTR [rsp+24], r8d
  00005	89 54 24 10	 mov	 DWORD PTR [rsp+16], edx
  00009	48 89 4c 24 08	 mov	 QWORD PTR [rsp+8], rcx
  0000e	48 83 ec 38	 sub	 rsp, 56			; 00000038H

; 50   :     if (buffer->memory)

  00012	48 8b 44 24 40	 mov	 rax, QWORD PTR buffer$[rsp]
  00017	48 83 78 30 00	 cmp	 QWORD PTR [rax+48], 0
  0001c	74 18		 je	 SHORT $LN2@win32_crea

; 51   :     {
; 52   :         VirtualFree(buffer->memory, 0, MEM_RELEASE);

  0001e	41 b8 00 80 00
	00		 mov	 r8d, 32768		; 00008000H
  00024	33 d2		 xor	 edx, edx
  00026	48 8b 44 24 40	 mov	 rax, QWORD PTR buffer$[rsp]
  0002b	48 8b 48 30	 mov	 rcx, QWORD PTR [rax+48]
  0002f	ff 15 00 00 00
	00		 call	 QWORD PTR __imp_VirtualFree
  00035	90		 npad	 1
$LN2@win32_crea:

; 53   :     }
; 54   : 
; 55   :     buffer->width = width;

  00036	48 8b 44 24 40	 mov	 rax, QWORD PTR buffer$[rsp]
  0003b	0f b7 4c 24 48	 movzx	 ecx, WORD PTR width$[rsp]
  00040	66 89 08	 mov	 WORD PTR [rax], cx

; 56   :     buffer->height = height;

  00043	48 8b 44 24 40	 mov	 rax, QWORD PTR buffer$[rsp]
  00048	0f b7 4c 24 50	 movzx	 ecx, WORD PTR height$[rsp]
  0004d	66 89 48 02	 mov	 WORD PTR [rax+2], cx

; 57   :     buffer->info.bmiHeader.biSize = sizeof(buffer->info.bmiHeader);

  00051	48 8b 44 24 40	 mov	 rax, QWORD PTR buffer$[rsp]
  00056	c7 40 04 28 00
	00 00		 mov	 DWORD PTR [rax+4], 40	; 00000028H

; 58   :     buffer->info.bmiHeader.biWidth = width;

  0005d	48 8b 44 24 40	 mov	 rax, QWORD PTR buffer$[rsp]
  00062	8b 4c 24 48	 mov	 ecx, DWORD PTR width$[rsp]
  00066	89 48 08	 mov	 DWORD PTR [rax+8], ecx

; 59   :     // Negative height for top down bitmap
; 60   :     buffer->info.bmiHeader.biHeight = -height;

  00069	8b 44 24 50	 mov	 eax, DWORD PTR height$[rsp]
  0006d	f7 d8		 neg	 eax
  0006f	48 8b 4c 24 40	 mov	 rcx, QWORD PTR buffer$[rsp]
  00074	89 41 0c	 mov	 DWORD PTR [rcx+12], eax

; 61   :     buffer->info.bmiHeader.biPlanes = 1;

  00077	b8 01 00 00 00	 mov	 eax, 1
  0007c	48 8b 4c 24 40	 mov	 rcx, QWORD PTR buffer$[rsp]
  00081	66 89 41 10	 mov	 WORD PTR [rcx+16], ax

; 62   :     buffer->info.bmiHeader.biBitCount = 32;

  00085	b8 20 00 00 00	 mov	 eax, 32			; 00000020H
  0008a	48 8b 4c 24 40	 mov	 rcx, QWORD PTR buffer$[rsp]
  0008f	66 89 41 12	 mov	 WORD PTR [rcx+18], ax

; 63   :     buffer->info.bmiHeader.biCompression = BI_RGB;

  00093	48 8b 44 24 40	 mov	 rax, QWORD PTR buffer$[rsp]
  00098	c7 40 14 00 00
	00 00		 mov	 DWORD PTR [rax+20], 0

; 64   :     uint8 bytesPerPixels = 4;

  0009f	c6 44 24 20 04	 mov	 BYTE PTR bytesPerPixels$[rsp], 4

; 65   :     uint32 bitmapMemroySize = width * height * bytesPerPixels;

  000a4	8b 44 24 48	 mov	 eax, DWORD PTR width$[rsp]
  000a8	0f af 44 24 50	 imul	 eax, DWORD PTR height$[rsp]
  000ad	0f b6 4c 24 20	 movzx	 ecx, BYTE PTR bytesPerPixels$[rsp]
  000b2	0f af c1	 imul	 eax, ecx
  000b5	89 44 24 24	 mov	 DWORD PTR bitmapMemroySize$[rsp], eax

; 66   :     buffer->memory = VirtualAlloc(0, bitmapMemroySize, MEM_COMMIT | MEM_RESERVE, PAGE_READWRITE);

  000b9	8b 44 24 24	 mov	 eax, DWORD PTR bitmapMemroySize$[rsp]
  000bd	41 b9 04 00 00
	00		 mov	 r9d, 4
  000c3	41 b8 00 30 00
	00		 mov	 r8d, 12288		; 00003000H
  000c9	8b d0		 mov	 edx, eax
  000cb	33 c9		 xor	 ecx, ecx
  000cd	ff 15 00 00 00
	00		 call	 QWORD PTR __imp_VirtualAlloc
  000d3	48 8b 4c 24 40	 mov	 rcx, QWORD PTR buffer$[rsp]
  000d8	48 89 41 30	 mov	 QWORD PTR [rcx+48], rax

; 67   :     buffer->pitch = width * bytesPerPixels;

  000dc	0f b6 44 24 20	 movzx	 eax, BYTE PTR bytesPerPixels$[rsp]
  000e1	8b 4c 24 48	 mov	 ecx, DWORD PTR width$[rsp]
  000e5	0f af c8	 imul	 ecx, eax
  000e8	8b c1		 mov	 eax, ecx
  000ea	48 8b 4c 24 40	 mov	 rcx, QWORD PTR buffer$[rsp]
  000ef	89 41 38	 mov	 DWORD PTR [rcx+56], eax

; 68   : }

  000f2	48 83 c4 38	 add	 rsp, 56			; 00000038H
  000f6	c3		 ret	 0
?win32_createDisplayBuffer@@YAXPEAUDisplayBuffer@@HH@Z ENDP ; win32_createDisplayBuffer
_TEXT	ENDS
; Function compile flags: /Odtp
; File C:\HandmadeHero\GFSC Working\platformApi\win32_handmade.cpp
_TEXT	SEGMENT
bytesToWrite$1 = 96
byteToLock$2 = 100
targetCursor$3 = 104
windowDimensions$4 = 108
window$ = 112
$T5 = 120
playCursor$6 = 124
deviceContext$7 = 128
writeCursor$8 = 136
buffer$9 = 144
windowClass$ = 176
message$10 = 256
soundOutput$11 = 304
__$ArrayPad$ = 344
instance$ = 368
prevInstance$ = 376
arguments$ = 384
showCode$ = 392
WinMain	PROC

; 233  : {

$LN12:
  00000	44 89 4c 24 20	 mov	 DWORD PTR [rsp+32], r9d
  00005	4c 89 44 24 18	 mov	 QWORD PTR [rsp+24], r8
  0000a	48 89 54 24 10	 mov	 QWORD PTR [rsp+16], rdx
  0000f	48 89 4c 24 08	 mov	 QWORD PTR [rsp+8], rcx
  00014	57		 push	 rdi
  00015	48 81 ec 60 01
	00 00		 sub	 rsp, 352		; 00000160H
  0001c	48 8b 05 00 00
	00 00		 mov	 rax, QWORD PTR __security_cookie
  00023	48 33 c4	 xor	 rax, rsp
  00026	48 89 84 24 58
	01 00 00	 mov	 QWORD PTR __$ArrayPad$[rsp], rax

; 234  :     WNDCLASSA windowClass = {};

  0002e	48 8d 84 24 b0
	00 00 00	 lea	 rax, QWORD PTR windowClass$[rsp]
  00036	48 8b f8	 mov	 rdi, rax
  00039	33 c0		 xor	 eax, eax
  0003b	b9 48 00 00 00	 mov	 ecx, 72			; 00000048H
  00040	f3 aa		 rep stosb

; 235  :     windowClass.hInstance = instance;

  00042	48 8b 84 24 70
	01 00 00	 mov	 rax, QWORD PTR instance$[rsp]
  0004a	48 89 84 24 c8
	00 00 00	 mov	 QWORD PTR windowClass$[rsp+24], rax

; 236  :     windowClass.lpfnWndProc = win32_MainWindowCallback;

  00052	48 8d 05 00 00
	00 00		 lea	 rax, OFFSET FLAT:?win32_MainWindowCallback@@YA_JPEAUHWND__@@I_K_J@Z ; win32_MainWindowCallback
  00059	48 89 84 24 b8
	00 00 00	 mov	 QWORD PTR windowClass$[rsp+8], rax

; 237  :     windowClass.lpszClassName = "HandmadeHero class";

  00061	48 8d 05 00 00
	00 00		 lea	 rax, OFFSET FLAT:$SG96015
  00068	48 89 84 24 f0
	00 00 00	 mov	 QWORD PTR windowClass$[rsp+64], rax

; 238  :     windowClass.style = CS_HREDRAW | CS_VREDRAW | CS_OWNDC;

  00070	c7 84 24 b0 00
	00 00 23 00 00
	00		 mov	 DWORD PTR windowClass$[rsp], 35 ; 00000023H

; 239  : 
; 240  :     RegisterClassA(&windowClass);

  0007b	48 8d 8c 24 b0
	00 00 00	 lea	 rcx, QWORD PTR windowClass$[rsp]
  00083	ff 15 00 00 00
	00		 call	 QWORD PTR __imp_RegisterClassA

; 241  : 
; 242  :     HWND window = CreateWindowExA(

  00089	48 c7 44 24 58
	00 00 00 00	 mov	 QWORD PTR [rsp+88], 0
  00092	48 8b 84 24 70
	01 00 00	 mov	 rax, QWORD PTR instance$[rsp]
  0009a	48 89 44 24 50	 mov	 QWORD PTR [rsp+80], rax
  0009f	48 c7 44 24 48
	00 00 00 00	 mov	 QWORD PTR [rsp+72], 0
  000a8	48 c7 44 24 40
	00 00 00 00	 mov	 QWORD PTR [rsp+64], 0
  000b1	c7 44 24 38 00
	00 00 80	 mov	 DWORD PTR [rsp+56], -2147483648 ; ffffffff80000000H
  000b9	c7 44 24 30 00
	00 00 80	 mov	 DWORD PTR [rsp+48], -2147483648 ; ffffffff80000000H
  000c1	c7 44 24 28 00
	00 00 80	 mov	 DWORD PTR [rsp+40], -2147483648 ; ffffffff80000000H
  000c9	c7 44 24 20 00
	00 00 80	 mov	 DWORD PTR [rsp+32], -2147483648 ; ffffffff80000000H
  000d1	41 b9 00 00 cf
	10		 mov	 r9d, 282001408		; 10cf0000H
  000d7	4c 8d 05 00 00
	00 00		 lea	 r8, OFFSET FLAT:$SG96016
  000de	48 8b 94 24 f0
	00 00 00	 mov	 rdx, QWORD PTR windowClass$[rsp+64]
  000e6	33 c9		 xor	 ecx, ecx
  000e8	ff 15 00 00 00
	00		 call	 QWORD PTR __imp_CreateWindowExA
  000ee	48 89 44 24 70	 mov	 QWORD PTR window$[rsp], rax

; 243  :         0, windowClass.lpszClassName, "Game",
; 244  :         WS_OVERLAPPEDWINDOW | WS_VISIBLE,
; 245  :         CW_USEDEFAULT, CW_USEDEFAULT, CW_USEDEFAULT, CW_USEDEFAULT,
; 246  :         0, 0, instance, 0);
; 247  : 
; 248  :     if (window)

  000f3	48 83 7c 24 70
	00		 cmp	 QWORD PTR window$[rsp], 0
  000f9	0f 84 ee 02 00
	00		 je	 $LN6@WinMain

; 249  :     {
; 250  :         globalRunning = true;

  000ff	c6 05 00 00 00
	00 01		 mov	 BYTE PTR ?globalRunning@@3_NA, 1 ; globalRunning

; 251  : 
; 252  :         HDC deviceContext = GetDC(window);

  00106	48 8b 4c 24 70	 mov	 rcx, QWORD PTR window$[rsp]
  0010b	ff 15 00 00 00
	00		 call	 QWORD PTR __imp_GetDC
  00111	48 89 84 24 80
	00 00 00	 mov	 QWORD PTR deviceContext$7[rsp], rax

; 253  :         win32_createDisplayBuffer(&displayBuffer, 1920, 1080);

  00119	41 b8 38 04 00
	00		 mov	 r8d, 1080		; 00000438H
  0011f	ba 80 07 00 00	 mov	 edx, 1920		; 00000780H
  00124	48 8d 0d 00 00
	00 00		 lea	 rcx, OFFSET FLAT:?displayBuffer@@3UDisplayBuffer@@A ; displayBuffer
  0012b	e8 00 00 00 00	 call	 ?win32_createDisplayBuffer@@YAXPEAUDisplayBuffer@@HH@Z ; win32_createDisplayBuffer

; 254  : 
; 255  :         SoundOutput soundOutput = {};

  00130	48 8d 84 24 30
	01 00 00	 lea	 rax, QWORD PTR soundOutput$11[rsp]
  00138	48 8b f8	 mov	 rdi, rax
  0013b	33 c0		 xor	 eax, eax
  0013d	b9 24 00 00 00	 mov	 ecx, 36			; 00000024H
  00142	f3 aa		 rep stosb

; 256  :         soundOutput.samplesPerSecond = 48000;                                                        // 48 khz = 48000 samples per second

  00144	c7 84 24 30 01
	00 00 80 bb 00
	00		 mov	 DWORD PTR soundOutput$11[rsp], 48000 ; 0000bb80H

; 257  :         soundOutput.toneHz = 256;                                                                    // no of samples between (Two peeks) theoratical

  0014f	c7 84 24 34 01
	00 00 00 01 00
	00		 mov	 DWORD PTR soundOutput$11[rsp+4], 256 ; 00000100H

; 258  :         soundOutput.toneVolume = 3000;                                                               // max value [lower than (2 ^ 16 - 1) =  65535]

  0015a	b8 b8 0b 00 00	 mov	 eax, 3000		; 00000bb8H
  0015f	66 89 84 24 38
	01 00 00	 mov	 WORD PTR soundOutput$11[rsp+8], ax

; 259  :         soundOutput.runningSampleIndex = 0;                                                          // incremented every [left right] = 1 sample filled

  00167	c7 84 24 3c 01
	00 00 00 00 00
	00		 mov	 DWORD PTR soundOutput$11[rsp+12], 0

; 260  :         soundOutput.wavePeriod = soundOutput.samplesPerSecond / soundOutput.toneHz;                  // 48000 / 256 = 187 no of samples between (Two peeks) in actual buffer

  00172	8b 84 24 30 01
	00 00		 mov	 eax, DWORD PTR soundOutput$11[rsp]
  00179	99		 cdq
  0017a	f7 bc 24 34 01
	00 00		 idiv	 DWORD PTR soundOutput$11[rsp+4]
  00181	89 84 24 40 01
	00 00		 mov	 DWORD PTR soundOutput$11[rsp+16], eax

; 261  :         soundOutput.bytesPerSample = sizeof(int16) * 2;                                              // [left(2byte) right(2byte)] = 4bytes

  00188	c7 84 24 44 01
	00 00 04 00 00
	00		 mov	 DWORD PTR soundOutput$11[rsp+20], 4

; 262  :         soundOutput.secondaryBufferSize = soundOutput.samplesPerSecond * soundOutput.bytesPerSample; // 48000 * 4bytes

  00193	8b 84 24 30 01
	00 00		 mov	 eax, DWORD PTR soundOutput$11[rsp]
  0019a	0f af 84 24 44
	01 00 00	 imul	 eax, DWORD PTR soundOutput$11[rsp+20]
  001a2	89 84 24 48 01
	00 00		 mov	 DWORD PTR soundOutput$11[rsp+24], eax

; 263  :         soundOutput.latencySampleCount = soundOutput.samplesPerSecond / 15;

  001a9	8b 84 24 30 01
	00 00		 mov	 eax, DWORD PTR soundOutput$11[rsp]
  001b0	99		 cdq
  001b1	b9 0f 00 00 00	 mov	 ecx, 15
  001b6	f7 f9		 idiv	 ecx
  001b8	89 84 24 50 01
	00 00		 mov	 DWORD PTR soundOutput$11[rsp+32], eax

; 264  :         win32_initDSound(window, soundOutput.samplesPerSecond, soundOutput.secondaryBufferSize);

  001bf	44 8b 84 24 48
	01 00 00	 mov	 r8d, DWORD PTR soundOutput$11[rsp+24]
  001c7	8b 94 24 30 01
	00 00		 mov	 edx, DWORD PTR soundOutput$11[rsp]
  001ce	48 8b 4c 24 70	 mov	 rcx, QWORD PTR window$[rsp]
  001d3	e8 00 00 00 00	 call	 ?win32_initDSound@@YAXPEAUHWND__@@HH@Z ; win32_initDSound

; 265  :         win32_fillSoundBuffer(&soundOutput, 0, (soundOutput.latencySampleCount * soundOutput.bytesPerSample));

  001d8	8b 84 24 50 01
	00 00		 mov	 eax, DWORD PTR soundOutput$11[rsp+32]
  001df	0f af 84 24 44
	01 00 00	 imul	 eax, DWORD PTR soundOutput$11[rsp+20]
  001e7	44 8b c0	 mov	 r8d, eax
  001ea	33 d2		 xor	 edx, edx
  001ec	48 8d 8c 24 30
	01 00 00	 lea	 rcx, QWORD PTR soundOutput$11[rsp]
  001f4	e8 00 00 00 00	 call	 ?win32_fillSoundBuffer@@YAXPEAUSoundOutput@@KK@Z ; win32_fillSoundBuffer

; 266  :         globalSecondaryBuffer->Play(0, 0, DSBPLAY_LOOPING);

  001f9	48 8b 05 00 00
	00 00		 mov	 rax, QWORD PTR ?globalSecondaryBuffer@@3PEAUIDirectSoundBuffer@@EA ; globalSecondaryBuffer
  00200	48 8b 00	 mov	 rax, QWORD PTR [rax]
  00203	41 b9 01 00 00
	00		 mov	 r9d, 1
  00209	45 33 c0	 xor	 r8d, r8d
  0020c	33 d2		 xor	 edx, edx
  0020e	48 8b 0d 00 00
	00 00		 mov	 rcx, QWORD PTR ?globalSecondaryBuffer@@3PEAUIDirectSoundBuffer@@EA ; globalSecondaryBuffer
  00215	ff 50 60	 call	 QWORD PTR [rax+96]
  00218	90		 npad	 1
$LN2@WinMain:

; 267  : 
; 268  :         while (globalRunning)

  00219	0f b6 05 00 00
	00 00		 movzx	 eax, BYTE PTR ?globalRunning@@3_NA ; globalRunning
  00220	85 c0		 test	 eax, eax
  00222	0f 84 b1 01 00
	00		 je	 $LN3@WinMain
$LN4@WinMain:

; 269  :         {
; 270  :             MSG message;
; 271  :             while (PeekMessageA(&message, 0, 0, 0, PM_REMOVE))

  00228	c7 44 24 20 01
	00 00 00	 mov	 DWORD PTR [rsp+32], 1
  00230	45 33 c9	 xor	 r9d, r9d
  00233	45 33 c0	 xor	 r8d, r8d
  00236	33 d2		 xor	 edx, edx
  00238	48 8d 8c 24 00
	01 00 00	 lea	 rcx, QWORD PTR message$10[rsp]
  00240	ff 15 00 00 00
	00		 call	 QWORD PTR __imp_PeekMessageA
  00246	85 c0		 test	 eax, eax
  00248	74 30		 je	 SHORT $LN5@WinMain

; 272  :             {
; 273  :                 if (message.message == WM_QUIT)

  0024a	83 bc 24 08 01
	00 00 12	 cmp	 DWORD PTR message$10[rsp+8], 18
  00252	75 07		 jne	 SHORT $LN7@WinMain

; 274  :                 {
; 275  :                     globalRunning = false;

  00254	c6 05 00 00 00
	00 00		 mov	 BYTE PTR ?globalRunning@@3_NA, 0 ; globalRunning
$LN7@WinMain:

; 276  :                 }
; 277  :                 TranslateMessage(&message);

  0025b	48 8d 8c 24 00
	01 00 00	 lea	 rcx, QWORD PTR message$10[rsp]
  00263	ff 15 00 00 00
	00		 call	 QWORD PTR __imp_TranslateMessage

; 278  :                 DispatchMessageA(&message);

  00269	48 8d 8c 24 00
	01 00 00	 lea	 rcx, QWORD PTR message$10[rsp]
  00271	ff 15 00 00 00
	00		 call	 QWORD PTR __imp_DispatchMessageA
  00277	90		 npad	 1

; 279  :             }

  00278	eb ae		 jmp	 SHORT $LN4@WinMain
$LN5@WinMain:

; 280  : 
; 281  :             game_DisplayBuffer buffer = {};

  0027a	48 8d 84 24 90
	00 00 00	 lea	 rax, QWORD PTR buffer$9[rsp]
  00282	48 8b f8	 mov	 rdi, rax
  00285	33 c0		 xor	 eax, eax
  00287	b9 18 00 00 00	 mov	 ecx, 24
  0028c	f3 aa		 rep stosb

; 282  :             buffer.memory = displayBuffer.memory;

  0028e	48 8b 05 30 00
	00 00		 mov	 rax, QWORD PTR ?displayBuffer@@3UDisplayBuffer@@A+48
  00295	48 89 84 24 98
	00 00 00	 mov	 QWORD PTR buffer$9[rsp+8], rax

; 283  :             buffer.width = displayBuffer.width;

  0029d	0f b7 05 00 00
	00 00		 movzx	 eax, WORD PTR ?displayBuffer@@3UDisplayBuffer@@A
  002a4	66 89 84 24 90
	00 00 00	 mov	 WORD PTR buffer$9[rsp], ax

; 284  :             buffer.height = displayBuffer.height;

  002ac	0f b7 05 02 00
	00 00		 movzx	 eax, WORD PTR ?displayBuffer@@3UDisplayBuffer@@A+2
  002b3	66 89 84 24 92
	00 00 00	 mov	 WORD PTR buffer$9[rsp+2], ax

; 285  :             buffer.pitch = displayBuffer.pitch;

  002bb	8b 05 38 00 00
	00		 mov	 eax, DWORD PTR ?displayBuffer@@3UDisplayBuffer@@A+56
  002c1	89 84 24 a0 00
	00 00		 mov	 DWORD PTR buffer$9[rsp+16], eax

; 286  :             gameUpdateAndRender(&buffer);

  002c8	48 8d 8c 24 90
	00 00 00	 lea	 rcx, QWORD PTR buffer$9[rsp]
  002d0	e8 00 00 00 00	 call	 ?gameUpdateAndRender@@YAXPEAUgame_DisplayBuffer@@@Z ; gameUpdateAndRender
  002d5	90		 npad	 1

; 287  : 
; 288  :             Dimensions windowDimensions = win32_getWindowDimensions(window);

  002d6	48 8b 4c 24 70	 mov	 rcx, QWORD PTR window$[rsp]
  002db	e8 00 00 00 00	 call	 ?win32_getWindowDimensions@@YA?AUDimensions@@PEAUHWND__@@@Z ; win32_getWindowDimensions
  002e0	89 44 24 78	 mov	 DWORD PTR $T5[rsp], eax
  002e4	8b 44 24 78	 mov	 eax, DWORD PTR $T5[rsp]
  002e8	89 44 24 6c	 mov	 DWORD PTR windowDimensions$4[rsp], eax

; 289  :             win32_displayBufferOnWindow(deviceContext, &displayBuffer, windowDimensions.width, windowDimensions.height);

  002ec	0f b7 44 24 6e	 movzx	 eax, WORD PTR windowDimensions$4[rsp+2]
  002f1	0f b7 4c 24 6c	 movzx	 ecx, WORD PTR windowDimensions$4[rsp]
  002f6	44 8b c8	 mov	 r9d, eax
  002f9	44 8b c1	 mov	 r8d, ecx
  002fc	48 8d 15 00 00
	00 00		 lea	 rdx, OFFSET FLAT:?displayBuffer@@3UDisplayBuffer@@A ; displayBuffer
  00303	48 8b 8c 24 80
	00 00 00	 mov	 rcx, QWORD PTR deviceContext$7[rsp]
  0030b	e8 00 00 00 00	 call	 ?win32_displayBufferOnWindow@@YAXPEAUHDC__@@PEAUDisplayBuffer@@HH@Z ; win32_displayBufferOnWindow
  00310	90		 npad	 1

; 290  : 
; 291  :             // offset, in bytes, from the start of the buffer , the current play position
; 292  :             DWORD playCursor;
; 293  :             DWORD writeCursor;
; 294  :             if (SUCCEEDED(globalSecondaryBuffer->GetCurrentPosition(&playCursor, &writeCursor)))

  00311	48 8b 05 00 00
	00 00		 mov	 rax, QWORD PTR ?globalSecondaryBuffer@@3PEAUIDirectSoundBuffer@@EA ; globalSecondaryBuffer
  00318	48 8b 00	 mov	 rax, QWORD PTR [rax]
  0031b	4c 8d 84 24 88
	00 00 00	 lea	 r8, QWORD PTR writeCursor$8[rsp]
  00323	48 8d 54 24 7c	 lea	 rdx, QWORD PTR playCursor$6[rsp]
  00328	48 8b 0d 00 00
	00 00		 mov	 rcx, QWORD PTR ?globalSecondaryBuffer@@3PEAUIDirectSoundBuffer@@EA ; globalSecondaryBuffer
  0032f	ff 50 20	 call	 QWORD PTR [rax+32]
  00332	85 c0		 test	 eax, eax
  00334	0f 8c 9a 00 00
	00		 jl	 $LN8@WinMain

; 295  :             {
; 296  :                 // Offset, in bytes, from the start of the buffer to where the lock begins.
; 297  :                 DWORD byteToLock = (soundOutput.runningSampleIndex * soundOutput.bytesPerSample) % soundOutput.secondaryBufferSize;

  0033a	8b 84 24 3c 01
	00 00		 mov	 eax, DWORD PTR soundOutput$11[rsp+12]
  00341	0f af 84 24 44
	01 00 00	 imul	 eax, DWORD PTR soundOutput$11[rsp+20]
  00349	33 d2		 xor	 edx, edx
  0034b	f7 b4 24 48 01
	00 00		 div	 DWORD PTR soundOutput$11[rsp+24]
  00352	8b c2		 mov	 eax, edx
  00354	89 44 24 64	 mov	 DWORD PTR byteToLock$2[rsp], eax

; 298  :                 DWORD targetCursor = (playCursor + (soundOutput.latencySampleCount * soundOutput.bytesPerSample)) % soundOutput.secondaryBufferSize;

  00358	8b 84 24 50 01
	00 00		 mov	 eax, DWORD PTR soundOutput$11[rsp+32]
  0035f	0f af 84 24 44
	01 00 00	 imul	 eax, DWORD PTR soundOutput$11[rsp+20]
  00367	8b 4c 24 7c	 mov	 ecx, DWORD PTR playCursor$6[rsp]
  0036b	03 c8		 add	 ecx, eax
  0036d	8b c1		 mov	 eax, ecx
  0036f	33 d2		 xor	 edx, edx
  00371	f7 b4 24 48 01
	00 00		 div	 DWORD PTR soundOutput$11[rsp+24]
  00378	8b c2		 mov	 eax, edx
  0037a	89 44 24 68	 mov	 DWORD PTR targetCursor$3[rsp], eax

; 299  :                 DWORD bytesToWrite; // number of bytes to be filled
; 300  :                 if (byteToLock > targetCursor)

  0037e	8b 44 24 68	 mov	 eax, DWORD PTR targetCursor$3[rsp]
  00382	39 44 24 64	 cmp	 DWORD PTR byteToLock$2[rsp], eax
  00386	76 25		 jbe	 SHORT $LN9@WinMain

; 301  :                 {
; 302  :                     bytesToWrite = (soundOutput.secondaryBufferSize - byteToLock);

  00388	8b 44 24 64	 mov	 eax, DWORD PTR byteToLock$2[rsp]
  0038c	8b 8c 24 48 01
	00 00		 mov	 ecx, DWORD PTR soundOutput$11[rsp+24]
  00393	2b c8		 sub	 ecx, eax
  00395	8b c1		 mov	 eax, ecx
  00397	89 44 24 60	 mov	 DWORD PTR bytesToWrite$1[rsp], eax

; 303  :                     bytesToWrite += targetCursor;

  0039b	8b 44 24 68	 mov	 eax, DWORD PTR targetCursor$3[rsp]
  0039f	8b 4c 24 60	 mov	 ecx, DWORD PTR bytesToWrite$1[rsp]
  003a3	03 c8		 add	 ecx, eax
  003a5	8b c1		 mov	 eax, ecx
  003a7	89 44 24 60	 mov	 DWORD PTR bytesToWrite$1[rsp], eax

; 304  :                 }

  003ab	eb 10		 jmp	 SHORT $LN10@WinMain
$LN9@WinMain:

; 305  :                 else
; 306  :                 {
; 307  :                     bytesToWrite = targetCursor - byteToLock;

  003ad	8b 44 24 64	 mov	 eax, DWORD PTR byteToLock$2[rsp]
  003b1	8b 4c 24 68	 mov	 ecx, DWORD PTR targetCursor$3[rsp]
  003b5	2b c8		 sub	 ecx, eax
  003b7	8b c1		 mov	 eax, ecx
  003b9	89 44 24 60	 mov	 DWORD PTR bytesToWrite$1[rsp], eax
$LN10@WinMain:

; 308  :                 }
; 309  :                 win32_fillSoundBuffer(&soundOutput, byteToLock, bytesToWrite);

  003bd	44 8b 44 24 60	 mov	 r8d, DWORD PTR bytesToWrite$1[rsp]
  003c2	8b 54 24 64	 mov	 edx, DWORD PTR byteToLock$2[rsp]
  003c6	48 8d 8c 24 30
	01 00 00	 lea	 rcx, QWORD PTR soundOutput$11[rsp]
  003ce	e8 00 00 00 00	 call	 ?win32_fillSoundBuffer@@YAXPEAUSoundOutput@@KK@Z ; win32_fillSoundBuffer
  003d3	90		 npad	 1
$LN8@WinMain:

; 310  :             }
; 311  :         }

  003d4	e9 40 fe ff ff	 jmp	 $LN2@WinMain
$LN3@WinMain:

; 312  :         ReleaseDC(window, deviceContext);

  003d9	48 8b 94 24 80
	00 00 00	 mov	 rdx, QWORD PTR deviceContext$7[rsp]
  003e1	48 8b 4c 24 70	 mov	 rcx, QWORD PTR window$[rsp]
  003e6	ff 15 00 00 00
	00		 call	 QWORD PTR __imp_ReleaseDC
  003ec	90		 npad	 1
$LN6@WinMain:

; 313  :     }
; 314  : }

  003ed	48 8b 8c 24 58
	01 00 00	 mov	 rcx, QWORD PTR __$ArrayPad$[rsp]
  003f5	48 33 cc	 xor	 rcx, rsp
  003f8	e8 00 00 00 00	 call	 __security_check_cookie
  003fd	48 81 c4 60 01
	00 00		 add	 rsp, 352		; 00000160H
  00404	5f		 pop	 rdi
  00405	c3		 ret	 0
WinMain	ENDP
_TEXT	ENDS
; Function compile flags: /Odtp
; File C:\HandmadeHero\GFSC Working\platformApi\handmade.cpp
_TEXT	SEGMENT
buffer$ = 48
?gameUpdateAndRender@@YAXPEAUgame_DisplayBuffer@@@Z PROC ; gameUpdateAndRender

; 22   : {

  00000	48 89 4c 24 08	 mov	 QWORD PTR [rsp+8], rcx
  00005	48 83 ec 28	 sub	 rsp, 40			; 00000028H

; 23   :     
; 24   :     win32_fillDisplayBuffer(buffer);

  00009	48 8b 4c 24 30	 mov	 rcx, QWORD PTR buffer$[rsp]
  0000e	e8 00 00 00 00	 call	 ?win32_fillDisplayBuffer@@YAXPEAUgame_DisplayBuffer@@@Z ; win32_fillDisplayBuffer
  00013	90		 npad	 1

; 25   : }

  00014	48 83 c4 28	 add	 rsp, 40			; 00000028H
  00018	c3		 ret	 0
?gameUpdateAndRender@@YAXPEAUgame_DisplayBuffer@@@Z ENDP ; gameUpdateAndRender
_TEXT	ENDS
; Function compile flags: /Odtp
; File C:\HandmadeHero\GFSC Working\platformApi\handmade.cpp
_TEXT	SEGMENT
r$1 = 0
g$2 = 1
b$3 = 2
y$4 = 4
x$5 = 8
pixel$6 = 16
row$ = 24
buffer$ = 48
?win32_fillDisplayBuffer@@YAXPEAUgame_DisplayBuffer@@@Z PROC ; win32_fillDisplayBuffer

; 4    : {

  00000	48 89 4c 24 08	 mov	 QWORD PTR [rsp+8], rcx
  00005	48 83 ec 28	 sub	 rsp, 40			; 00000028H

; 5    :     uint8 *row = (uint8 *)buffer->memory;

  00009	48 8b 44 24 30	 mov	 rax, QWORD PTR buffer$[rsp]
  0000e	48 8b 40 08	 mov	 rax, QWORD PTR [rax+8]
  00012	48 89 44 24 18	 mov	 QWORD PTR row$[rsp], rax

; 6    :     for (int y = 0; y < buffer->height; y++)

  00017	c7 44 24 04 00
	00 00 00	 mov	 DWORD PTR y$4[rsp], 0
  0001f	eb 0a		 jmp	 SHORT $LN4@win32_fill
$LN2@win32_fill:
  00021	8b 44 24 04	 mov	 eax, DWORD PTR y$4[rsp]
  00025	ff c0		 inc	 eax
  00027	89 44 24 04	 mov	 DWORD PTR y$4[rsp], eax
$LN4@win32_fill:
  0002b	48 8b 44 24 30	 mov	 rax, QWORD PTR buffer$[rsp]
  00030	0f b7 40 02	 movzx	 eax, WORD PTR [rax+2]
  00034	39 44 24 04	 cmp	 DWORD PTR y$4[rsp], eax
  00038	0f 8d 87 00 00
	00		 jge	 $LN3@win32_fill

; 7    :     {
; 8    :         uint32 *pixel = (uint32 *)row;

  0003e	48 8b 44 24 18	 mov	 rax, QWORD PTR row$[rsp]
  00043	48 89 44 24 10	 mov	 QWORD PTR pixel$6[rsp], rax

; 9    :         for (int x = 0; x < buffer->width; x++)

  00048	c7 44 24 08 00
	00 00 00	 mov	 DWORD PTR x$5[rsp], 0
  00050	eb 0a		 jmp	 SHORT $LN7@win32_fill
$LN5@win32_fill:
  00052	8b 44 24 08	 mov	 eax, DWORD PTR x$5[rsp]
  00056	ff c0		 inc	 eax
  00058	89 44 24 08	 mov	 DWORD PTR x$5[rsp], eax
$LN7@win32_fill:
  0005c	48 8b 44 24 30	 mov	 rax, QWORD PTR buffer$[rsp]
  00061	0f b7 00	 movzx	 eax, WORD PTR [rax]
  00064	39 44 24 08	 cmp	 DWORD PTR x$5[rsp], eax
  00068	7d 3d		 jge	 SHORT $LN6@win32_fill

; 10   :         {
; 11   :             uint8 r = 255;

  0006a	c6 04 24 ff	 mov	 BYTE PTR r$1[rsp], 255	; 000000ffH

; 12   :             uint8 g = 0;

  0006e	c6 44 24 01 00	 mov	 BYTE PTR g$2[rsp], 0

; 13   :             uint8 b = 0;

  00073	c6 44 24 02 00	 mov	 BYTE PTR b$3[rsp], 0

; 14   :             *pixel++ = (r << 16) | (g << 8) | b;

  00078	0f b6 04 24	 movzx	 eax, BYTE PTR r$1[rsp]
  0007c	c1 e0 10	 shl	 eax, 16
  0007f	0f b6 4c 24 01	 movzx	 ecx, BYTE PTR g$2[rsp]
  00084	c1 e1 08	 shl	 ecx, 8
  00087	0b c1		 or	 eax, ecx
  00089	0f b6 4c 24 02	 movzx	 ecx, BYTE PTR b$3[rsp]
  0008e	0b c1		 or	 eax, ecx
  00090	48 8b 4c 24 10	 mov	 rcx, QWORD PTR pixel$6[rsp]
  00095	89 01		 mov	 DWORD PTR [rcx], eax
  00097	48 8b 44 24 10	 mov	 rax, QWORD PTR pixel$6[rsp]
  0009c	48 83 c0 04	 add	 rax, 4
  000a0	48 89 44 24 10	 mov	 QWORD PTR pixel$6[rsp], rax

; 15   :         }

  000a5	eb ab		 jmp	 SHORT $LN5@win32_fill
$LN6@win32_fill:

; 16   :         row += buffer->pitch;

  000a7	48 8b 44 24 30	 mov	 rax, QWORD PTR buffer$[rsp]
  000ac	48 63 40 10	 movsxd	 rax, DWORD PTR [rax+16]
  000b0	48 8b 4c 24 18	 mov	 rcx, QWORD PTR row$[rsp]
  000b5	48 03 c8	 add	 rcx, rax
  000b8	48 8b c1	 mov	 rax, rcx
  000bb	48 89 44 24 18	 mov	 QWORD PTR row$[rsp], rax

; 17   :     }

  000c0	e9 5c ff ff ff	 jmp	 $LN2@win32_fill
$LN3@win32_fill:

; 18   : }

  000c5	48 83 c4 28	 add	 rsp, 40			; 00000028H
  000c9	c3		 ret	 0
?win32_fillDisplayBuffer@@YAXPEAUgame_DisplayBuffer@@@Z ENDP ; win32_fillDisplayBuffer
_TEXT	ENDS
END
