; Listing generated by Microsoft (R) Optimizing Compiler Version 19.41.34123.0 

include listing.inc

INCLUDELIB LIBCMT
INCLUDELIB OLDNAMES

CONST	SEGMENT
$SG95828 DB	'dsound.dll', 00H
	ORG $+5
$SG95830 DB	'DirectSoundCreate', 00H
	ORG $+6
$SG95835 DB	'Succeeded setting primary buffer format.', 0aH, 00H
	ORG $+6
$SG95837 DB	'Succeeded creating  secondary buffer.', 0aH, 00H
	ORG $+1
$SG95905 DB	'className', 00H
	ORG $+6
$SG95906 DB	'windowName', 00H
CONST	ENDS
PUBLIC	WinMain
PUBLIC	?windowCallback@@YA_JPEAUHWND__@@I_K_J@Z	; windowCallback
PUBLIC	__real@40c90fdb
EXTRN	__imp_OutputDebugStringA:PROC
EXTRN	__imp_GetProcAddress:PROC
EXTRN	__imp_LoadLibraryA:PROC
EXTRN	__imp_TranslateMessage:PROC
EXTRN	__imp_DispatchMessageA:PROC
EXTRN	__imp_PeekMessageA:PROC
EXTRN	__imp_DefWindowProcA:PROC
EXTRN	__imp_RegisterClassA:PROC
EXTRN	__imp_CreateWindowExA:PROC
EXTRN	sinf:PROC
EXTRN	__GSHandlerCheck:PROC
EXTRN	__security_check_cookie:PROC
EXTRN	__security_cookie:QWORD
EXTRN	_fltused:DWORD
_BSS	SEGMENT
?globalSecondaryBuffer@@3PEAUIDirectSoundBuffer@@EA DQ 01H DUP (?) ; globalSecondaryBuffer
?gameIsRunning@@3HA DD 01H DUP (?)			; gameIsRunning
_BSS	ENDS
pdata	SEGMENT
$pdata$WinMain DD imagerel $LN12
	DD	imagerel $LN12+817
	DD	imagerel $unwind$WinMain
$pdata$?initDSound@@YAXPEAUHWND__@@HH@Z DD imagerel ?initDSound@@YAXPEAUHWND__@@HH@Z
	DD	imagerel ?initDSound@@YAXPEAUHWND__@@HH@Z+509
	DD	imagerel $unwind$?initDSound@@YAXPEAUHWND__@@HH@Z
$pdata$?fillSoundBuffer@@YAXPEAUSoundOutput@@KK@Z DD imagerel ?fillSoundBuffer@@YAXPEAUSoundOutput@@KK@Z
	DD	imagerel ?fillSoundBuffer@@YAXPEAUSoundOutput@@KK@Z+704
	DD	imagerel $unwind$?fillSoundBuffer@@YAXPEAUSoundOutput@@KK@Z
$pdata$?windowCallback@@YA_JPEAUHWND__@@I_K_J@Z DD imagerel $LN6
	DD	imagerel $LN6+84
	DD	imagerel $unwind$?windowCallback@@YA_JPEAUHWND__@@I_K_J@Z
pdata	ENDS
;	COMDAT __real@40c90fdb
CONST	SEGMENT
__real@40c90fdb DD 040c90fdbr			; 6.28319
CONST	ENDS
voltbl	SEGMENT
_volmd	DD	0ffffffffH
	DDSymXIndex: 	FLAT:?initDSound@@YAXPEAUHWND__@@HH@Z
	DD	020H
	DD	01e4H
_volmd	DD	0ffffffffH
	DDSymXIndex: 	FLAT:WinMain
	DD	026H
	DD	0318H
voltbl	ENDS
xdata	SEGMENT
$unwind$WinMain DD 032e19H
	DD	026011cH
	DD	07015H
	DD	imagerel __GSHandlerCheck
	DD	0128H
$unwind$?initDSound@@YAXPEAUHWND__@@HH@Z DD 032819H
	DD	0160116H
	DD	0700fH
	DD	imagerel __GSHandlerCheck
	DD	0a8H
$unwind$?fillSoundBuffer@@YAXPEAUSoundOutput@@KK@Z DD 021501H
	DD	0110115H
$unwind$?windowCallback@@YA_JPEAUHWND__@@I_K_J@Z DD 011701H
	DD	06217H
xdata	ENDS
; Function compile flags: /Odtp
; File C:\HandmadeHero\GFSC Working\Sound\main.cpp
_TEXT	SEGMENT
tv64 = 32
window$ = 64
message$ = 72
wParam$ = 80
lParam$ = 88
?windowCallback@@YA_JPEAUHWND__@@I_K_J@Z PROC		; windowCallback

; 122  : {

$LN6:
  00000	4c 89 4c 24 20	 mov	 QWORD PTR [rsp+32], r9
  00005	4c 89 44 24 18	 mov	 QWORD PTR [rsp+24], r8
  0000a	89 54 24 10	 mov	 DWORD PTR [rsp+16], edx
  0000e	48 89 4c 24 08	 mov	 QWORD PTR [rsp+8], rcx
  00013	48 83 ec 38	 sub	 rsp, 56			; 00000038H

; 123  :     switch (message)

  00017	8b 44 24 48	 mov	 eax, DWORD PTR message$[rsp]
  0001b	89 44 24 20	 mov	 DWORD PTR tv64[rsp], eax
  0001f	83 7c 24 20 10	 cmp	 DWORD PTR tv64[rsp], 16
  00024	74 02		 je	 SHORT $LN4@windowCall
  00026	eb 0e		 jmp	 SHORT $LN2@windowCall
$LN4@windowCall:

; 124  :     {
; 125  :     case WM_CLOSE:
; 126  :     {
; 127  :         gameIsRunning = false;

  00028	c7 05 00 00 00
	00 00 00 00 00	 mov	 DWORD PTR ?gameIsRunning@@3HA, 0

; 128  :     }
; 129  :         return 0;

  00032	33 c0		 xor	 eax, eax
  00034	eb 19		 jmp	 SHORT $LN1@windowCall
$LN2@windowCall:

; 130  :     }
; 131  :     return DefWindowProcA(window, message, wParam, lParam);

  00036	4c 8b 4c 24 58	 mov	 r9, QWORD PTR lParam$[rsp]
  0003b	4c 8b 44 24 50	 mov	 r8, QWORD PTR wParam$[rsp]
  00040	8b 54 24 48	 mov	 edx, DWORD PTR message$[rsp]
  00044	48 8b 4c 24 40	 mov	 rcx, QWORD PTR window$[rsp]
  00049	ff 15 00 00 00
	00		 call	 QWORD PTR __imp_DefWindowProcA
$LN1@windowCall:

; 132  : }

  0004f	48 83 c4 38	 add	 rsp, 56			; 00000038H
  00053	c3		 ret	 0
?windowCallback@@YA_JPEAUHWND__@@I_K_J@Z ENDP		; windowCallback
_TEXT	ENDS
; Function compile flags: /Odtp
; File C:\HandmadeHero\GFSC Working\Sound\main.cpp
_TEXT	SEGMENT
sampleOut$1 = 64
sampleValue$2 = 72
sampleValue$3 = 76
sampleIndex$4 = 80
sampleIndex$5 = 84
region2Size$ = 88
region1Size$ = 92
region1SampleCount$6 = 96
sinValue$7 = 100
region2SampleCount$8 = 104
sinValue$9 = 108
region2$ = 112
region1$ = 120
soundOutput$ = 144
byteToLock$ = 152
bytesToWrite$ = 160
?fillSoundBuffer@@YAXPEAUSoundOutput@@KK@Z PROC		; fillSoundBuffer

; 83   : {

  00000	44 89 44 24 18	 mov	 DWORD PTR [rsp+24], r8d
  00005	89 54 24 10	 mov	 DWORD PTR [rsp+16], edx
  00009	48 89 4c 24 08	 mov	 QWORD PTR [rsp+8], rcx
  0000e	48 81 ec 88 00
	00 00		 sub	 rsp, 136		; 00000088H

; 84   :     void *region1;
; 85   :     DWORD region1Size;
; 86   :     void *region2;
; 87   :     DWORD region2Size;
; 88   :     if (SUCCEEDED(globalSecondaryBuffer->Lock(byteToLock, bytesToWrite, &region1, &region1Size, &region2, &region2Size, 0)))

  00015	48 8b 05 00 00
	00 00		 mov	 rax, QWORD PTR ?globalSecondaryBuffer@@3PEAUIDirectSoundBuffer@@EA
  0001c	48 8b 00	 mov	 rax, QWORD PTR [rax]
  0001f	c7 44 24 38 00
	00 00 00	 mov	 DWORD PTR [rsp+56], 0
  00027	48 8d 4c 24 58	 lea	 rcx, QWORD PTR region2Size$[rsp]
  0002c	48 89 4c 24 30	 mov	 QWORD PTR [rsp+48], rcx
  00031	48 8d 4c 24 70	 lea	 rcx, QWORD PTR region2$[rsp]
  00036	48 89 4c 24 28	 mov	 QWORD PTR [rsp+40], rcx
  0003b	48 8d 4c 24 5c	 lea	 rcx, QWORD PTR region1Size$[rsp]
  00040	48 89 4c 24 20	 mov	 QWORD PTR [rsp+32], rcx
  00045	4c 8d 4c 24 78	 lea	 r9, QWORD PTR region1$[rsp]
  0004a	44 8b 84 24 a0
	00 00 00	 mov	 r8d, DWORD PTR bytesToWrite$[rsp]
  00052	8b 94 24 98 00
	00 00		 mov	 edx, DWORD PTR byteToLock$[rsp]
  00059	48 8b 0d 00 00
	00 00		 mov	 rcx, QWORD PTR ?globalSecondaryBuffer@@3PEAUIDirectSoundBuffer@@EA
  00060	ff 50 58	 call	 QWORD PTR [rax+88]
  00063	85 c0		 test	 eax, eax
  00065	0f 8c 4d 02 00
	00		 jl	 $LN8@fillSoundB

; 89   :     {
; 90   :         DWORD region1SampleCount = region1Size / soundOutput->bytesPerSample;

  0006b	33 d2		 xor	 edx, edx
  0006d	8b 44 24 5c	 mov	 eax, DWORD PTR region1Size$[rsp]
  00071	48 8b 8c 24 90
	00 00 00	 mov	 rcx, QWORD PTR soundOutput$[rsp]
  00079	f7 71 14	 div	 DWORD PTR [rcx+20]
  0007c	89 44 24 60	 mov	 DWORD PTR region1SampleCount$6[rsp], eax

; 91   :         int16 *sampleOut = (int16 *)region1;

  00080	48 8b 44 24 78	 mov	 rax, QWORD PTR region1$[rsp]
  00085	48 89 44 24 40	 mov	 QWORD PTR sampleOut$1[rsp], rax

; 92   :         for (DWORD sampleIndex = 0; sampleIndex < region1SampleCount; sampleIndex++)

  0008a	c7 44 24 50 00
	00 00 00	 mov	 DWORD PTR sampleIndex$4[rsp], 0
  00092	eb 0a		 jmp	 SHORT $LN4@fillSoundB
$LN2@fillSoundB:
  00094	8b 44 24 50	 mov	 eax, DWORD PTR sampleIndex$4[rsp]
  00098	ff c0		 inc	 eax
  0009a	89 44 24 50	 mov	 DWORD PTR sampleIndex$4[rsp], eax
$LN4@fillSoundB:
  0009e	8b 44 24 60	 mov	 eax, DWORD PTR region1SampleCount$6[rsp]
  000a2	39 44 24 50	 cmp	 DWORD PTR sampleIndex$4[rsp], eax
  000a6	0f 83 ce 00 00
	00		 jae	 $LN3@fillSoundB

; 93   :         {
; 94   :             real32 sinValue = sinf(soundOutput->tsine);

  000ac	48 8b 84 24 90
	00 00 00	 mov	 rax, QWORD PTR soundOutput$[rsp]
  000b4	f3 0f 10 40 1c	 movss	 xmm0, DWORD PTR [rax+28]
  000b9	e8 00 00 00 00	 call	 sinf
  000be	f3 0f 11 44 24
	64		 movss	 DWORD PTR sinValue$7[rsp], xmm0

; 95   :             int16 sampleValue = (int16)(sinValue * soundOutput->toneVolume);

  000c4	48 8b 84 24 90
	00 00 00	 mov	 rax, QWORD PTR soundOutput$[rsp]
  000cc	0f bf 40 08	 movsx	 eax, WORD PTR [rax+8]
  000d0	f3 0f 2a c0	 cvtsi2ss xmm0, eax
  000d4	f3 0f 10 4c 24
	64		 movss	 xmm1, DWORD PTR sinValue$7[rsp]
  000da	f3 0f 59 c8	 mulss	 xmm1, xmm0
  000de	0f 28 c1	 movaps	 xmm0, xmm1
  000e1	f3 0f 2c c0	 cvttss2si eax, xmm0
  000e5	66 89 44 24 48	 mov	 WORD PTR sampleValue$2[rsp], ax

; 96   :             *sampleOut++ = sampleValue;

  000ea	48 8b 44 24 40	 mov	 rax, QWORD PTR sampleOut$1[rsp]
  000ef	0f b7 4c 24 48	 movzx	 ecx, WORD PTR sampleValue$2[rsp]
  000f4	66 89 08	 mov	 WORD PTR [rax], cx
  000f7	48 8b 44 24 40	 mov	 rax, QWORD PTR sampleOut$1[rsp]
  000fc	48 83 c0 02	 add	 rax, 2
  00100	48 89 44 24 40	 mov	 QWORD PTR sampleOut$1[rsp], rax

; 97   :             *sampleOut++ = sampleValue;

  00105	48 8b 44 24 40	 mov	 rax, QWORD PTR sampleOut$1[rsp]
  0010a	0f b7 4c 24 48	 movzx	 ecx, WORD PTR sampleValue$2[rsp]
  0010f	66 89 08	 mov	 WORD PTR [rax], cx
  00112	48 8b 44 24 40	 mov	 rax, QWORD PTR sampleOut$1[rsp]
  00117	48 83 c0 02	 add	 rax, 2
  0011b	48 89 44 24 40	 mov	 QWORD PTR sampleOut$1[rsp], rax

; 98   : 
; 99   :             soundOutput->tsine += 2.0f * Pi32 / (real32)soundOutput->wavePeriod;

  00120	48 8b 84 24 90
	00 00 00	 mov	 rax, QWORD PTR soundOutput$[rsp]
  00128	f3 0f 2a 40 10	 cvtsi2ss xmm0, DWORD PTR [rax+16]
  0012d	f3 0f 10 0d 00
	00 00 00	 movss	 xmm1, DWORD PTR __real@40c90fdb
  00135	f3 0f 5e c8	 divss	 xmm1, xmm0
  00139	0f 28 c1	 movaps	 xmm0, xmm1
  0013c	48 8b 84 24 90
	00 00 00	 mov	 rax, QWORD PTR soundOutput$[rsp]
  00144	f3 0f 10 48 1c	 movss	 xmm1, DWORD PTR [rax+28]
  00149	f3 0f 58 c8	 addss	 xmm1, xmm0
  0014d	0f 28 c1	 movaps	 xmm0, xmm1
  00150	48 8b 84 24 90
	00 00 00	 mov	 rax, QWORD PTR soundOutput$[rsp]
  00158	f3 0f 11 40 1c	 movss	 DWORD PTR [rax+28], xmm0

; 100  :             ++soundOutput->runningSampleIndex;

  0015d	48 8b 84 24 90
	00 00 00	 mov	 rax, QWORD PTR soundOutput$[rsp]
  00165	8b 40 0c	 mov	 eax, DWORD PTR [rax+12]
  00168	ff c0		 inc	 eax
  0016a	48 8b 8c 24 90
	00 00 00	 mov	 rcx, QWORD PTR soundOutput$[rsp]
  00172	89 41 0c	 mov	 DWORD PTR [rcx+12], eax

; 101  :         }

  00175	e9 1a ff ff ff	 jmp	 $LN2@fillSoundB
$LN3@fillSoundB:

; 102  : 
; 103  :         DWORD region2SampleCount = region2Size / soundOutput->bytesPerSample;

  0017a	33 d2		 xor	 edx, edx
  0017c	8b 44 24 58	 mov	 eax, DWORD PTR region2Size$[rsp]
  00180	48 8b 8c 24 90
	00 00 00	 mov	 rcx, QWORD PTR soundOutput$[rsp]
  00188	f7 71 14	 div	 DWORD PTR [rcx+20]
  0018b	89 44 24 68	 mov	 DWORD PTR region2SampleCount$8[rsp], eax

; 104  :         sampleOut = (int16 *)region2;

  0018f	48 8b 44 24 70	 mov	 rax, QWORD PTR region2$[rsp]
  00194	48 89 44 24 40	 mov	 QWORD PTR sampleOut$1[rsp], rax

; 105  :         for (DWORD sampleIndex = 0; sampleIndex < region2SampleCount; sampleIndex++)

  00199	c7 44 24 54 00
	00 00 00	 mov	 DWORD PTR sampleIndex$5[rsp], 0
  001a1	eb 0a		 jmp	 SHORT $LN7@fillSoundB
$LN5@fillSoundB:
  001a3	8b 44 24 54	 mov	 eax, DWORD PTR sampleIndex$5[rsp]
  001a7	ff c0		 inc	 eax
  001a9	89 44 24 54	 mov	 DWORD PTR sampleIndex$5[rsp], eax
$LN7@fillSoundB:
  001ad	8b 44 24 68	 mov	 eax, DWORD PTR region2SampleCount$8[rsp]
  001b1	39 44 24 54	 cmp	 DWORD PTR sampleIndex$5[rsp], eax
  001b5	0f 83 ce 00 00
	00		 jae	 $LN6@fillSoundB

; 106  :         {
; 107  :             real32 sinValue = sinf(soundOutput->tsine);

  001bb	48 8b 84 24 90
	00 00 00	 mov	 rax, QWORD PTR soundOutput$[rsp]
  001c3	f3 0f 10 40 1c	 movss	 xmm0, DWORD PTR [rax+28]
  001c8	e8 00 00 00 00	 call	 sinf
  001cd	f3 0f 11 44 24
	6c		 movss	 DWORD PTR sinValue$9[rsp], xmm0

; 108  :             int16 sampleValue = (int16)(sinValue * soundOutput->toneVolume);

  001d3	48 8b 84 24 90
	00 00 00	 mov	 rax, QWORD PTR soundOutput$[rsp]
  001db	0f bf 40 08	 movsx	 eax, WORD PTR [rax+8]
  001df	f3 0f 2a c0	 cvtsi2ss xmm0, eax
  001e3	f3 0f 10 4c 24
	6c		 movss	 xmm1, DWORD PTR sinValue$9[rsp]
  001e9	f3 0f 59 c8	 mulss	 xmm1, xmm0
  001ed	0f 28 c1	 movaps	 xmm0, xmm1
  001f0	f3 0f 2c c0	 cvttss2si eax, xmm0
  001f4	66 89 44 24 4c	 mov	 WORD PTR sampleValue$3[rsp], ax

; 109  :             *sampleOut++ = sampleValue;

  001f9	48 8b 44 24 40	 mov	 rax, QWORD PTR sampleOut$1[rsp]
  001fe	0f b7 4c 24 4c	 movzx	 ecx, WORD PTR sampleValue$3[rsp]
  00203	66 89 08	 mov	 WORD PTR [rax], cx
  00206	48 8b 44 24 40	 mov	 rax, QWORD PTR sampleOut$1[rsp]
  0020b	48 83 c0 02	 add	 rax, 2
  0020f	48 89 44 24 40	 mov	 QWORD PTR sampleOut$1[rsp], rax

; 110  :             *sampleOut++ = sampleValue;

  00214	48 8b 44 24 40	 mov	 rax, QWORD PTR sampleOut$1[rsp]
  00219	0f b7 4c 24 4c	 movzx	 ecx, WORD PTR sampleValue$3[rsp]
  0021e	66 89 08	 mov	 WORD PTR [rax], cx
  00221	48 8b 44 24 40	 mov	 rax, QWORD PTR sampleOut$1[rsp]
  00226	48 83 c0 02	 add	 rax, 2
  0022a	48 89 44 24 40	 mov	 QWORD PTR sampleOut$1[rsp], rax

; 111  : 
; 112  :             soundOutput->tsine += 2.0f * Pi32 / (real32)soundOutput->wavePeriod;

  0022f	48 8b 84 24 90
	00 00 00	 mov	 rax, QWORD PTR soundOutput$[rsp]
  00237	f3 0f 2a 40 10	 cvtsi2ss xmm0, DWORD PTR [rax+16]
  0023c	f3 0f 10 0d 00
	00 00 00	 movss	 xmm1, DWORD PTR __real@40c90fdb
  00244	f3 0f 5e c8	 divss	 xmm1, xmm0
  00248	0f 28 c1	 movaps	 xmm0, xmm1
  0024b	48 8b 84 24 90
	00 00 00	 mov	 rax, QWORD PTR soundOutput$[rsp]
  00253	f3 0f 10 48 1c	 movss	 xmm1, DWORD PTR [rax+28]
  00258	f3 0f 58 c8	 addss	 xmm1, xmm0
  0025c	0f 28 c1	 movaps	 xmm0, xmm1
  0025f	48 8b 84 24 90
	00 00 00	 mov	 rax, QWORD PTR soundOutput$[rsp]
  00267	f3 0f 11 40 1c	 movss	 DWORD PTR [rax+28], xmm0

; 113  :             ++soundOutput->runningSampleIndex;

  0026c	48 8b 84 24 90
	00 00 00	 mov	 rax, QWORD PTR soundOutput$[rsp]
  00274	8b 40 0c	 mov	 eax, DWORD PTR [rax+12]
  00277	ff c0		 inc	 eax
  00279	48 8b 8c 24 90
	00 00 00	 mov	 rcx, QWORD PTR soundOutput$[rsp]
  00281	89 41 0c	 mov	 DWORD PTR [rcx+12], eax

; 114  :         }

  00284	e9 1a ff ff ff	 jmp	 $LN5@fillSoundB
$LN6@fillSoundB:

; 115  : 
; 116  :         globalSecondaryBuffer->Unlock(region1, region1Size, region2, region2Size);

  00289	48 8b 05 00 00
	00 00		 mov	 rax, QWORD PTR ?globalSecondaryBuffer@@3PEAUIDirectSoundBuffer@@EA
  00290	48 8b 00	 mov	 rax, QWORD PTR [rax]
  00293	8b 4c 24 58	 mov	 ecx, DWORD PTR region2Size$[rsp]
  00297	89 4c 24 20	 mov	 DWORD PTR [rsp+32], ecx
  0029b	4c 8b 4c 24 70	 mov	 r9, QWORD PTR region2$[rsp]
  002a0	44 8b 44 24 5c	 mov	 r8d, DWORD PTR region1Size$[rsp]
  002a5	48 8b 54 24 78	 mov	 rdx, QWORD PTR region1$[rsp]
  002aa	48 8b 0d 00 00
	00 00		 mov	 rcx, QWORD PTR ?globalSecondaryBuffer@@3PEAUIDirectSoundBuffer@@EA
  002b1	ff 90 98 00 00
	00		 call	 QWORD PTR [rax+152]
  002b7	90		 npad	 1
$LN8@fillSoundB:

; 117  :     }
; 118  : }

  002b8	48 81 c4 88 00
	00 00		 add	 rsp, 136		; 00000088H
  002bf	c3		 ret	 0
?fillSoundBuffer@@YAXPEAUSoundOutput@@KK@Z ENDP		; fillSoundBuffer
_TEXT	ENDS
; Function compile flags: /Odtp
; File C:\HandmadeHero\GFSC Working\Sound\main.cpp
_TEXT	SEGMENT
directSound$1 = 32
dSound$ = 40
DirectSoundCreate$2 = 48
primaryBuffer$3 = 56
bufferDescription$4 = 64
waveFormat$5 = 104
bufferDescription$6 = 128
__$ArrayPad$ = 168
window$ = 192
samplesPerSecond$ = 200
bufferSize$ = 208
?initDSound@@YAXPEAUHWND__@@HH@Z PROC			; initDSound

; 38   : {

  00000	44 89 44 24 18	 mov	 DWORD PTR [rsp+24], r8d
  00005	89 54 24 10	 mov	 DWORD PTR [rsp+16], edx
  00009	48 89 4c 24 08	 mov	 QWORD PTR [rsp+8], rcx
  0000e	57		 push	 rdi
  0000f	48 81 ec b0 00
	00 00		 sub	 rsp, 176		; 000000b0H
  00016	48 8b 05 00 00
	00 00		 mov	 rax, QWORD PTR __security_cookie
  0001d	48 33 c4	 xor	 rax, rsp
  00020	48 89 84 24 a8
	00 00 00	 mov	 QWORD PTR __$ArrayPad$[rsp], rax

; 39   :     HMODULE dSound = LoadLibraryA("dsound.dll");

  00028	48 8d 0d 00 00
	00 00		 lea	 rcx, OFFSET FLAT:$SG95828
  0002f	ff 15 00 00 00
	00		 call	 QWORD PTR __imp_LoadLibraryA
  00035	48 89 44 24 28	 mov	 QWORD PTR dSound$[rsp], rax

; 40   :     if (dSound)

  0003a	48 83 7c 24 28
	00		 cmp	 QWORD PTR dSound$[rsp], 0
  00040	0f 84 9e 01 00
	00		 je	 $LN2@initDSound

; 41   :     {
; 42   :         direct_sound_create *DirectSoundCreate = (direct_sound_create *)GetProcAddress(dSound, "DirectSoundCreate");

  00046	48 8d 15 00 00
	00 00		 lea	 rdx, OFFSET FLAT:$SG95830
  0004d	48 8b 4c 24 28	 mov	 rcx, QWORD PTR dSound$[rsp]
  00052	ff 15 00 00 00
	00		 call	 QWORD PTR __imp_GetProcAddress
  00058	48 89 44 24 30	 mov	 QWORD PTR DirectSoundCreate$2[rsp], rax

; 43   :         LPDIRECTSOUND directSound;
; 44   :         if (DirectSoundCreate && SUCCEEDED(DirectSoundCreate(0, &directSound, 0)))

  0005d	48 83 7c 24 30
	00		 cmp	 QWORD PTR DirectSoundCreate$2[rsp], 0
  00063	0f 84 7b 01 00
	00		 je	 $LN3@initDSound
  00069	45 33 c0	 xor	 r8d, r8d
  0006c	48 8d 54 24 20	 lea	 rdx, QWORD PTR directSound$1[rsp]
  00071	33 c9		 xor	 ecx, ecx
  00073	ff 54 24 30	 call	 QWORD PTR DirectSoundCreate$2[rsp]
  00077	85 c0		 test	 eax, eax
  00079	0f 8c 65 01 00
	00		 jl	 $LN3@initDSound

; 45   :         {
; 46   :             WAVEFORMATEX waveFormat = {};

  0007f	48 8d 44 24 68	 lea	 rax, QWORD PTR waveFormat$5[rsp]
  00084	48 8b f8	 mov	 rdi, rax
  00087	33 c0		 xor	 eax, eax
  00089	b9 12 00 00 00	 mov	 ecx, 18
  0008e	f3 aa		 rep stosb

; 47   :             waveFormat.wFormatTag = WAVE_FORMAT_PCM;

  00090	b8 01 00 00 00	 mov	 eax, 1
  00095	66 89 44 24 68	 mov	 WORD PTR waveFormat$5[rsp], ax

; 48   :             waveFormat.nChannels = 2;

  0009a	b8 02 00 00 00	 mov	 eax, 2
  0009f	66 89 44 24 6a	 mov	 WORD PTR waveFormat$5[rsp+2], ax

; 49   :             waveFormat.nSamplesPerSec = samplesPerSecond;

  000a4	8b 84 24 c8 00
	00 00		 mov	 eax, DWORD PTR samplesPerSecond$[rsp]
  000ab	89 44 24 6c	 mov	 DWORD PTR waveFormat$5[rsp+4], eax

; 50   :             waveFormat.wBitsPerSample = 16;

  000af	b8 10 00 00 00	 mov	 eax, 16
  000b4	66 89 44 24 76	 mov	 WORD PTR waveFormat$5[rsp+14], ax

; 51   :             waveFormat.nBlockAlign = (waveFormat.nChannels * waveFormat.wBitsPerSample) / 8;

  000b9	0f b7 44 24 6a	 movzx	 eax, WORD PTR waveFormat$5[rsp+2]
  000be	0f b7 4c 24 76	 movzx	 ecx, WORD PTR waveFormat$5[rsp+14]
  000c3	0f af c1	 imul	 eax, ecx
  000c6	99		 cdq
  000c7	83 e2 07	 and	 edx, 7
  000ca	03 c2		 add	 eax, edx
  000cc	c1 f8 03	 sar	 eax, 3
  000cf	66 89 44 24 74	 mov	 WORD PTR waveFormat$5[rsp+12], ax

; 52   :             waveFormat.nAvgBytesPerSec = waveFormat.nSamplesPerSec * waveFormat.nBlockAlign;

  000d4	0f b7 44 24 74	 movzx	 eax, WORD PTR waveFormat$5[rsp+12]
  000d9	8b 4c 24 6c	 mov	 ecx, DWORD PTR waveFormat$5[rsp+4]
  000dd	0f af c8	 imul	 ecx, eax
  000e0	8b c1		 mov	 eax, ecx
  000e2	89 44 24 70	 mov	 DWORD PTR waveFormat$5[rsp+8], eax

; 53   :             if (SUCCEEDED(directSound->SetCooperativeLevel(window, DSSCL_PRIORITY)))

  000e6	48 8b 44 24 20	 mov	 rax, QWORD PTR directSound$1[rsp]
  000eb	48 8b 00	 mov	 rax, QWORD PTR [rax]
  000ee	41 b8 02 00 00
	00		 mov	 r8d, 2
  000f4	48 8b 94 24 c0
	00 00 00	 mov	 rdx, QWORD PTR window$[rsp]
  000fc	48 8b 4c 24 20	 mov	 rcx, QWORD PTR directSound$1[rsp]
  00101	ff 50 30	 call	 QWORD PTR [rax+48]
  00104	85 c0		 test	 eax, eax
  00106	7c 75		 jl	 SHORT $LN4@initDSound

; 54   :             {
; 55   :                 DSBUFFERDESC bufferDescription = {};

  00108	48 8d 84 24 80
	00 00 00	 lea	 rax, QWORD PTR bufferDescription$6[rsp]
  00110	48 8b f8	 mov	 rdi, rax
  00113	33 c0		 xor	 eax, eax
  00115	b9 28 00 00 00	 mov	 ecx, 40			; 00000028H
  0011a	f3 aa		 rep stosb

; 56   :                 bufferDescription.dwSize = sizeof(bufferDescription);

  0011c	c7 84 24 80 00
	00 00 28 00 00
	00		 mov	 DWORD PTR bufferDescription$6[rsp], 40 ; 00000028H

; 57   :                 bufferDescription.dwFlags = DSBCAPS_PRIMARYBUFFER;

  00127	c7 84 24 84 00
	00 00 01 00 00
	00		 mov	 DWORD PTR bufferDescription$6[rsp+4], 1

; 58   : 
; 59   :                 LPDIRECTSOUNDBUFFER primaryBuffer;
; 60   :                 if (SUCCEEDED(directSound->CreateSoundBuffer(&bufferDescription, &primaryBuffer, 0)))

  00132	48 8b 44 24 20	 mov	 rax, QWORD PTR directSound$1[rsp]
  00137	48 8b 00	 mov	 rax, QWORD PTR [rax]
  0013a	45 33 c9	 xor	 r9d, r9d
  0013d	4c 8d 44 24 38	 lea	 r8, QWORD PTR primaryBuffer$3[rsp]
  00142	48 8d 94 24 80
	00 00 00	 lea	 rdx, QWORD PTR bufferDescription$6[rsp]
  0014a	48 8b 4c 24 20	 mov	 rcx, QWORD PTR directSound$1[rsp]
  0014f	ff 50 18	 call	 QWORD PTR [rax+24]
  00152	85 c0		 test	 eax, eax
  00154	7c 27		 jl	 SHORT $LN5@initDSound

; 61   :                 {
; 62   :                     if (SUCCEEDED(primaryBuffer->SetFormat(&waveFormat))) // *** THIS HERE **** [no reason, not so important just defined this way]

  00156	48 8b 44 24 38	 mov	 rax, QWORD PTR primaryBuffer$3[rsp]
  0015b	48 8b 00	 mov	 rax, QWORD PTR [rax]
  0015e	48 8d 54 24 68	 lea	 rdx, QWORD PTR waveFormat$5[rsp]
  00163	48 8b 4c 24 38	 mov	 rcx, QWORD PTR primaryBuffer$3[rsp]
  00168	ff 50 70	 call	 QWORD PTR [rax+112]
  0016b	85 c0		 test	 eax, eax
  0016d	7c 0e		 jl	 SHORT $LN6@initDSound

; 63   :                     {
; 64   :                         OutputDebugStringA("Succeeded setting primary buffer format.\n");

  0016f	48 8d 0d 00 00
	00 00		 lea	 rcx, OFFSET FLAT:$SG95835
  00176	ff 15 00 00 00
	00		 call	 QWORD PTR __imp_OutputDebugStringA
  0017c	90		 npad	 1
$LN6@initDSound:
$LN5@initDSound:
$LN4@initDSound:

; 65   :                     }
; 66   :                 }
; 67   :             }
; 68   : 
; 69   :             DSBUFFERDESC bufferDescription = {};

  0017d	48 8d 44 24 40	 lea	 rax, QWORD PTR bufferDescription$4[rsp]
  00182	48 8b f8	 mov	 rdi, rax
  00185	33 c0		 xor	 eax, eax
  00187	b9 28 00 00 00	 mov	 ecx, 40			; 00000028H
  0018c	f3 aa		 rep stosb

; 70   :             bufferDescription.dwSize = sizeof(bufferDescription);

  0018e	c7 44 24 40 28
	00 00 00	 mov	 DWORD PTR bufferDescription$4[rsp], 40 ; 00000028H

; 71   :             bufferDescription.dwFlags = 0;

  00196	c7 44 24 44 00
	00 00 00	 mov	 DWORD PTR bufferDescription$4[rsp+4], 0

; 72   :             bufferDescription.dwBufferBytes = bufferSize;

  0019e	8b 84 24 d0 00
	00 00		 mov	 eax, DWORD PTR bufferSize$[rsp]
  001a5	89 44 24 48	 mov	 DWORD PTR bufferDescription$4[rsp+8], eax

; 73   :             bufferDescription.lpwfxFormat = &waveFormat; // *** WHY THIS HERE **** [no reason, not so important just defined this way]

  001a9	48 8d 44 24 68	 lea	 rax, QWORD PTR waveFormat$5[rsp]
  001ae	48 89 44 24 50	 mov	 QWORD PTR bufferDescription$4[rsp+16], rax

; 74   :             if (SUCCEEDED(directSound->CreateSoundBuffer(&bufferDescription, &globalSecondaryBuffer, 0)))

  001b3	48 8b 44 24 20	 mov	 rax, QWORD PTR directSound$1[rsp]
  001b8	48 8b 00	 mov	 rax, QWORD PTR [rax]
  001bb	45 33 c9	 xor	 r9d, r9d
  001be	4c 8d 05 00 00
	00 00		 lea	 r8, OFFSET FLAT:?globalSecondaryBuffer@@3PEAUIDirectSoundBuffer@@EA
  001c5	48 8d 54 24 40	 lea	 rdx, QWORD PTR bufferDescription$4[rsp]
  001ca	48 8b 4c 24 20	 mov	 rcx, QWORD PTR directSound$1[rsp]
  001cf	ff 50 18	 call	 QWORD PTR [rax+24]
  001d2	85 c0		 test	 eax, eax
  001d4	7c 0e		 jl	 SHORT $LN7@initDSound

; 75   :             {
; 76   :                 OutputDebugStringA("Succeeded creating  secondary buffer.\n");

  001d6	48 8d 0d 00 00
	00 00		 lea	 rcx, OFFSET FLAT:$SG95837
  001dd	ff 15 00 00 00
	00		 call	 QWORD PTR __imp_OutputDebugStringA
  001e3	90		 npad	 1
$LN7@initDSound:
$LN3@initDSound:
$LN2@initDSound:

; 77   :             }
; 78   :         }
; 79   :     }
; 80   : }

  001e4	48 8b 8c 24 a8
	00 00 00	 mov	 rcx, QWORD PTR __$ArrayPad$[rsp]
  001ec	48 33 cc	 xor	 rcx, rsp
  001ef	e8 00 00 00 00	 call	 __security_check_cookie
  001f4	48 81 c4 b0 00
	00 00		 add	 rsp, 176		; 000000b0H
  001fb	5f		 pop	 rdi
  001fc	c3		 ret	 0
?initDSound@@YAXPEAUHWND__@@HH@Z ENDP			; initDSound
_TEXT	ENDS
; Function compile flags: /Odtp
; File C:\HandmadeHero\GFSC Working\Sound\main.cpp
_TEXT	SEGMENT
bytesToWrite$1 = 96
byteToLock$2 = 100
targetCursor$3 = 104
playCursor$4 = 108
window$ = 112
writeCursor$5 = 120
windowClass$ = 128
message$6 = 208
soundOutput$7 = 256
__$ArrayPad$ = 296
instance$ = 320
preveInstance$ = 328
arguments$ = 336
showCode$ = 344
WinMain	PROC

; 135  : {

$LN12:
  00000	44 89 4c 24 20	 mov	 DWORD PTR [rsp+32], r9d
  00005	4c 89 44 24 18	 mov	 QWORD PTR [rsp+24], r8
  0000a	48 89 54 24 10	 mov	 QWORD PTR [rsp+16], rdx
  0000f	48 89 4c 24 08	 mov	 QWORD PTR [rsp+8], rcx
  00014	57		 push	 rdi
  00015	48 81 ec 30 01
	00 00		 sub	 rsp, 304		; 00000130H
  0001c	48 8b 05 00 00
	00 00		 mov	 rax, QWORD PTR __security_cookie
  00023	48 33 c4	 xor	 rax, rsp
  00026	48 89 84 24 28
	01 00 00	 mov	 QWORD PTR __$ArrayPad$[rsp], rax

; 136  :     WNDCLASSA windowClass = {};

  0002e	48 8d 84 24 80
	00 00 00	 lea	 rax, QWORD PTR windowClass$[rsp]
  00036	48 8b f8	 mov	 rdi, rax
  00039	33 c0		 xor	 eax, eax
  0003b	b9 48 00 00 00	 mov	 ecx, 72			; 00000048H
  00040	f3 aa		 rep stosb

; 137  :     windowClass.hInstance = instance;

  00042	48 8b 84 24 40
	01 00 00	 mov	 rax, QWORD PTR instance$[rsp]
  0004a	48 89 84 24 98
	00 00 00	 mov	 QWORD PTR windowClass$[rsp+24], rax

; 138  :     windowClass.lpfnWndProc = windowCallback;

  00052	48 8d 05 00 00
	00 00		 lea	 rax, OFFSET FLAT:?windowCallback@@YA_JPEAUHWND__@@I_K_J@Z ; windowCallback
  00059	48 89 84 24 88
	00 00 00	 mov	 QWORD PTR windowClass$[rsp+8], rax

; 139  :     windowClass.lpszClassName = "className";

  00061	48 8d 05 00 00
	00 00		 lea	 rax, OFFSET FLAT:$SG95905
  00068	48 89 84 24 c0
	00 00 00	 mov	 QWORD PTR windowClass$[rsp+64], rax

; 140  :     windowClass.style = CS_HREDRAW | CS_VREDRAW | CS_OWNDC;

  00070	c7 84 24 80 00
	00 00 23 00 00
	00		 mov	 DWORD PTR windowClass$[rsp], 35 ; 00000023H

; 141  :     RegisterClassA(&windowClass);

  0007b	48 8d 8c 24 80
	00 00 00	 lea	 rcx, QWORD PTR windowClass$[rsp]
  00083	ff 15 00 00 00
	00		 call	 QWORD PTR __imp_RegisterClassA

; 142  :     HWND window = CreateWindowExA(0, windowClass.lpszClassName, "windowName",

  00089	48 c7 44 24 58
	00 00 00 00	 mov	 QWORD PTR [rsp+88], 0
  00092	48 8b 84 24 40
	01 00 00	 mov	 rax, QWORD PTR instance$[rsp]
  0009a	48 89 44 24 50	 mov	 QWORD PTR [rsp+80], rax
  0009f	48 c7 44 24 48
	00 00 00 00	 mov	 QWORD PTR [rsp+72], 0
  000a8	48 c7 44 24 40
	00 00 00 00	 mov	 QWORD PTR [rsp+64], 0
  000b1	c7 44 24 38 00
	00 00 80	 mov	 DWORD PTR [rsp+56], -2147483648 ; ffffffff80000000H
  000b9	c7 44 24 30 00
	00 00 80	 mov	 DWORD PTR [rsp+48], -2147483648 ; ffffffff80000000H
  000c1	c7 44 24 28 00
	00 00 80	 mov	 DWORD PTR [rsp+40], -2147483648 ; ffffffff80000000H
  000c9	c7 44 24 20 00
	00 00 80	 mov	 DWORD PTR [rsp+32], -2147483648 ; ffffffff80000000H
  000d1	41 b9 00 00 cf
	10		 mov	 r9d, 282001408		; 10cf0000H
  000d7	4c 8d 05 00 00
	00 00		 lea	 r8, OFFSET FLAT:$SG95906
  000de	48 8b 94 24 c0
	00 00 00	 mov	 rdx, QWORD PTR windowClass$[rsp+64]
  000e6	33 c9		 xor	 ecx, ecx
  000e8	ff 15 00 00 00
	00		 call	 QWORD PTR __imp_CreateWindowExA
  000ee	48 89 44 24 70	 mov	 QWORD PTR window$[rsp], rax

; 143  :                                   WS_OVERLAPPEDWINDOW | WS_VISIBLE,
; 144  :                                   CW_USEDEFAULT, CW_USEDEFAULT, CW_USEDEFAULT, CW_USEDEFAULT,
; 145  :                                   0, 0, instance, 0);
; 146  : 
; 147  :     if (window)

  000f3	48 83 7c 24 70
	00		 cmp	 QWORD PTR window$[rsp], 0
  000f9	0f 84 19 02 00
	00		 je	 $LN6@WinMain

; 148  :     {
; 149  :         SoundOutput soundOutput = {};

  000ff	48 8d 84 24 00
	01 00 00	 lea	 rax, QWORD PTR soundOutput$7[rsp]
  00107	48 8b f8	 mov	 rdi, rax
  0010a	33 c0		 xor	 eax, eax
  0010c	b9 24 00 00 00	 mov	 ecx, 36			; 00000024H
  00111	f3 aa		 rep stosb

; 150  :         soundOutput.samplesPerSecond = 48000;                                                        // 48 khz = 48000 samples per second

  00113	c7 84 24 00 01
	00 00 80 bb 00
	00		 mov	 DWORD PTR soundOutput$7[rsp], 48000 ; 0000bb80H

; 151  :         soundOutput.toneHz = 256;                                                                    // no of samples between (Two peeks) theoratical

  0011e	c7 84 24 04 01
	00 00 00 01 00
	00		 mov	 DWORD PTR soundOutput$7[rsp+4], 256 ; 00000100H

; 152  :         soundOutput.toneVolume = 3000;                                                               // max value [lower than (2 ^ 16 - 1) =  65535]

  00129	b8 b8 0b 00 00	 mov	 eax, 3000		; 00000bb8H
  0012e	66 89 84 24 08
	01 00 00	 mov	 WORD PTR soundOutput$7[rsp+8], ax

; 153  :         soundOutput.runningSampleIndex = 0;                                                          // incremented every [left right] = 1 sample filled

  00136	c7 84 24 0c 01
	00 00 00 00 00
	00		 mov	 DWORD PTR soundOutput$7[rsp+12], 0

; 154  :         soundOutput.wavePeriod = soundOutput.samplesPerSecond / soundOutput.toneHz;                  // 48000 / 256 = 187 no of samples between (Two peeks) in actual buffer

  00141	8b 84 24 00 01
	00 00		 mov	 eax, DWORD PTR soundOutput$7[rsp]
  00148	99		 cdq
  00149	f7 bc 24 04 01
	00 00		 idiv	 DWORD PTR soundOutput$7[rsp+4]
  00150	89 84 24 10 01
	00 00		 mov	 DWORD PTR soundOutput$7[rsp+16], eax

; 155  :         soundOutput.bytesPerSample = sizeof(int16) * 2;                                              // [left(2byte) right(2byte)] = 4bytes

  00157	c7 84 24 14 01
	00 00 04 00 00
	00		 mov	 DWORD PTR soundOutput$7[rsp+20], 4

; 156  :         soundOutput.secondaryBufferSize = soundOutput.samplesPerSecond * soundOutput.bytesPerSample; // 48000 * 4bytes

  00162	8b 84 24 00 01
	00 00		 mov	 eax, DWORD PTR soundOutput$7[rsp]
  00169	0f af 84 24 14
	01 00 00	 imul	 eax, DWORD PTR soundOutput$7[rsp+20]
  00171	89 84 24 18 01
	00 00		 mov	 DWORD PTR soundOutput$7[rsp+24], eax

; 157  :         soundOutput.latencySampleCount = soundOutput.samplesPerSecond / 15;

  00178	8b 84 24 00 01
	00 00		 mov	 eax, DWORD PTR soundOutput$7[rsp]
  0017f	99		 cdq
  00180	b9 0f 00 00 00	 mov	 ecx, 15
  00185	f7 f9		 idiv	 ecx
  00187	89 84 24 20 01
	00 00		 mov	 DWORD PTR soundOutput$7[rsp+32], eax

; 158  : 
; 159  :         initDSound(window, soundOutput.samplesPerSecond, soundOutput.secondaryBufferSize);

  0018e	44 8b 84 24 18
	01 00 00	 mov	 r8d, DWORD PTR soundOutput$7[rsp+24]
  00196	8b 94 24 00 01
	00 00		 mov	 edx, DWORD PTR soundOutput$7[rsp]
  0019d	48 8b 4c 24 70	 mov	 rcx, QWORD PTR window$[rsp]
  001a2	e8 00 00 00 00	 call	 ?initDSound@@YAXPEAUHWND__@@HH@Z ; initDSound

; 160  : 
; 161  :         fillSoundBuffer(&soundOutput, 0, (soundOutput.latencySampleCount * soundOutput.bytesPerSample));

  001a7	8b 84 24 20 01
	00 00		 mov	 eax, DWORD PTR soundOutput$7[rsp+32]
  001ae	0f af 84 24 14
	01 00 00	 imul	 eax, DWORD PTR soundOutput$7[rsp+20]
  001b6	44 8b c0	 mov	 r8d, eax
  001b9	33 d2		 xor	 edx, edx
  001bb	48 8d 8c 24 00
	01 00 00	 lea	 rcx, QWORD PTR soundOutput$7[rsp]
  001c3	e8 00 00 00 00	 call	 ?fillSoundBuffer@@YAXPEAUSoundOutput@@KK@Z ; fillSoundBuffer

; 162  : 
; 163  :         globalSecondaryBuffer->Play(0, 0, DSBPLAY_LOOPING);

  001c8	48 8b 05 00 00
	00 00		 mov	 rax, QWORD PTR ?globalSecondaryBuffer@@3PEAUIDirectSoundBuffer@@EA
  001cf	48 8b 00	 mov	 rax, QWORD PTR [rax]
  001d2	41 b9 01 00 00
	00		 mov	 r9d, 1
  001d8	45 33 c0	 xor	 r8d, r8d
  001db	33 d2		 xor	 edx, edx
  001dd	48 8b 0d 00 00
	00 00		 mov	 rcx, QWORD PTR ?globalSecondaryBuffer@@3PEAUIDirectSoundBuffer@@EA
  001e4	ff 50 60	 call	 QWORD PTR [rax+96]

; 164  : 
; 165  :         gameIsRunning = true;

  001e7	c7 05 00 00 00
	00 01 00 00 00	 mov	 DWORD PTR ?gameIsRunning@@3HA, 1
$LN2@WinMain:

; 166  :         while (gameIsRunning)

  001f1	83 3d 00 00 00
	00 00		 cmp	 DWORD PTR ?gameIsRunning@@3HA, 0
  001f8	0f 84 1a 01 00
	00		 je	 $LN3@WinMain
$LN4@WinMain:

; 167  :         {
; 168  :             MSG message;
; 169  :             while (PeekMessageA(&message, 0, 0, 0, PM_REMOVE))

  001fe	c7 44 24 20 01
	00 00 00	 mov	 DWORD PTR [rsp+32], 1
  00206	45 33 c9	 xor	 r9d, r9d
  00209	45 33 c0	 xor	 r8d, r8d
  0020c	33 d2		 xor	 edx, edx
  0020e	48 8d 8c 24 d0
	00 00 00	 lea	 rcx, QWORD PTR message$6[rsp]
  00216	ff 15 00 00 00
	00		 call	 QWORD PTR __imp_PeekMessageA
  0021c	85 c0		 test	 eax, eax
  0021e	74 33		 je	 SHORT $LN5@WinMain

; 170  :             {
; 171  :                 if (message.message == WM_QUIT)

  00220	83 bc 24 d8 00
	00 00 12	 cmp	 DWORD PTR message$6[rsp+8], 18
  00228	75 0a		 jne	 SHORT $LN7@WinMain

; 172  :                 {
; 173  :                     gameIsRunning = false;

  0022a	c7 05 00 00 00
	00 00 00 00 00	 mov	 DWORD PTR ?gameIsRunning@@3HA, 0
$LN7@WinMain:

; 174  :                 }
; 175  :                 TranslateMessage(&message);

  00234	48 8d 8c 24 d0
	00 00 00	 lea	 rcx, QWORD PTR message$6[rsp]
  0023c	ff 15 00 00 00
	00		 call	 QWORD PTR __imp_TranslateMessage

; 176  :                 DispatchMessageA(&message);

  00242	48 8d 8c 24 d0
	00 00 00	 lea	 rcx, QWORD PTR message$6[rsp]
  0024a	ff 15 00 00 00
	00		 call	 QWORD PTR __imp_DispatchMessageA
  00250	90		 npad	 1

; 177  :             }

  00251	eb ab		 jmp	 SHORT $LN4@WinMain
$LN5@WinMain:

; 178  : 
; 179  :             // offset, in bytes, from the start of the buffer , the current play position
; 180  :             DWORD playCursor;
; 181  :             DWORD writeCursor;
; 182  :             if (SUCCEEDED(globalSecondaryBuffer->GetCurrentPosition(&playCursor, &writeCursor)))

  00253	48 8b 05 00 00
	00 00		 mov	 rax, QWORD PTR ?globalSecondaryBuffer@@3PEAUIDirectSoundBuffer@@EA
  0025a	48 8b 00	 mov	 rax, QWORD PTR [rax]
  0025d	4c 8d 44 24 78	 lea	 r8, QWORD PTR writeCursor$5[rsp]
  00262	48 8d 54 24 6c	 lea	 rdx, QWORD PTR playCursor$4[rsp]
  00267	48 8b 0d 00 00
	00 00		 mov	 rcx, QWORD PTR ?globalSecondaryBuffer@@3PEAUIDirectSoundBuffer@@EA
  0026e	ff 50 20	 call	 QWORD PTR [rax+32]
  00271	85 c0		 test	 eax, eax
  00273	0f 8c 9a 00 00
	00		 jl	 $LN8@WinMain

; 183  :             {
; 184  :                 // Offset, in bytes, from the start of the buffer to where the lock begins.
; 185  :                 DWORD byteToLock = (soundOutput.runningSampleIndex * soundOutput.bytesPerSample) % soundOutput.secondaryBufferSize;

  00279	8b 84 24 0c 01
	00 00		 mov	 eax, DWORD PTR soundOutput$7[rsp+12]
  00280	0f af 84 24 14
	01 00 00	 imul	 eax, DWORD PTR soundOutput$7[rsp+20]
  00288	33 d2		 xor	 edx, edx
  0028a	f7 b4 24 18 01
	00 00		 div	 DWORD PTR soundOutput$7[rsp+24]
  00291	8b c2		 mov	 eax, edx
  00293	89 44 24 64	 mov	 DWORD PTR byteToLock$2[rsp], eax

; 186  :                 DWORD targetCursor = (playCursor + (soundOutput.latencySampleCount * soundOutput.bytesPerSample)) % soundOutput.secondaryBufferSize;

  00297	8b 84 24 20 01
	00 00		 mov	 eax, DWORD PTR soundOutput$7[rsp+32]
  0029e	0f af 84 24 14
	01 00 00	 imul	 eax, DWORD PTR soundOutput$7[rsp+20]
  002a6	8b 4c 24 6c	 mov	 ecx, DWORD PTR playCursor$4[rsp]
  002aa	03 c8		 add	 ecx, eax
  002ac	8b c1		 mov	 eax, ecx
  002ae	33 d2		 xor	 edx, edx
  002b0	f7 b4 24 18 01
	00 00		 div	 DWORD PTR soundOutput$7[rsp+24]
  002b7	8b c2		 mov	 eax, edx
  002b9	89 44 24 68	 mov	 DWORD PTR targetCursor$3[rsp], eax

; 187  :                 DWORD bytesToWrite; // number of bytes to be filled
; 188  :                 if (byteToLock > targetCursor)

  002bd	8b 44 24 68	 mov	 eax, DWORD PTR targetCursor$3[rsp]
  002c1	39 44 24 64	 cmp	 DWORD PTR byteToLock$2[rsp], eax
  002c5	76 25		 jbe	 SHORT $LN9@WinMain

; 189  :                 {
; 190  :                     bytesToWrite = (soundOutput.secondaryBufferSize - byteToLock);

  002c7	8b 44 24 64	 mov	 eax, DWORD PTR byteToLock$2[rsp]
  002cb	8b 8c 24 18 01
	00 00		 mov	 ecx, DWORD PTR soundOutput$7[rsp+24]
  002d2	2b c8		 sub	 ecx, eax
  002d4	8b c1		 mov	 eax, ecx
  002d6	89 44 24 60	 mov	 DWORD PTR bytesToWrite$1[rsp], eax

; 191  :                     bytesToWrite += targetCursor;

  002da	8b 44 24 68	 mov	 eax, DWORD PTR targetCursor$3[rsp]
  002de	8b 4c 24 60	 mov	 ecx, DWORD PTR bytesToWrite$1[rsp]
  002e2	03 c8		 add	 ecx, eax
  002e4	8b c1		 mov	 eax, ecx
  002e6	89 44 24 60	 mov	 DWORD PTR bytesToWrite$1[rsp], eax

; 192  :                 }

  002ea	eb 10		 jmp	 SHORT $LN10@WinMain
$LN9@WinMain:

; 193  :                 else
; 194  :                 {
; 195  :                     bytesToWrite = targetCursor - byteToLock;

  002ec	8b 44 24 64	 mov	 eax, DWORD PTR byteToLock$2[rsp]
  002f0	8b 4c 24 68	 mov	 ecx, DWORD PTR targetCursor$3[rsp]
  002f4	2b c8		 sub	 ecx, eax
  002f6	8b c1		 mov	 eax, ecx
  002f8	89 44 24 60	 mov	 DWORD PTR bytesToWrite$1[rsp], eax
$LN10@WinMain:

; 196  :                 }
; 197  :                 fillSoundBuffer(&soundOutput, byteToLock, bytesToWrite);

  002fc	44 8b 44 24 60	 mov	 r8d, DWORD PTR bytesToWrite$1[rsp]
  00301	8b 54 24 64	 mov	 edx, DWORD PTR byteToLock$2[rsp]
  00305	48 8d 8c 24 00
	01 00 00	 lea	 rcx, QWORD PTR soundOutput$7[rsp]
  0030d	e8 00 00 00 00	 call	 ?fillSoundBuffer@@YAXPEAUSoundOutput@@KK@Z ; fillSoundBuffer
  00312	90		 npad	 1
$LN8@WinMain:

; 198  :             }
; 199  :         }

  00313	e9 d9 fe ff ff	 jmp	 $LN2@WinMain
$LN3@WinMain:
$LN6@WinMain:

; 200  :     }
; 201  : }

  00318	48 8b 8c 24 28
	01 00 00	 mov	 rcx, QWORD PTR __$ArrayPad$[rsp]
  00320	48 33 cc	 xor	 rcx, rsp
  00323	e8 00 00 00 00	 call	 __security_check_cookie
  00328	48 81 c4 30 01
	00 00		 add	 rsp, 304		; 00000130H
  0032f	5f		 pop	 rdi
  00330	c3		 ret	 0
WinMain	ENDP
_TEXT	ENDS
END
